.globl shim__ZN7android22AudioPolicyManagerBase11getForceUseE24audio_policy_force_use_t
shim__ZN7android22AudioPolicyManagerBase11getForceUseE24audio_policy_force_use_t:
bl _ZN7android22AudioPolicyManagerBase11getForceUseE24audio_policy_force_use_t

.globl shim__ZN7android22AudioPolicyManagerBase9initCheckEv
shim__ZN7android22AudioPolicyManagerBase9initCheckEv:
bl _ZN7android22AudioPolicyManagerBase9initCheckEv

.globl shim__ZN7android22AudioPolicyManagerBase8isInCallEv
shim__ZN7android22AudioPolicyManagerBase8isInCallEv:
bl _ZN7android22AudioPolicyManagerBase8isInCallEv

.globl shim__ZN7android22AudioPolicyManagerBase13isStateInCallEi
shim__ZN7android22AudioPolicyManagerBase13isStateInCallEi:
bl _ZN7android22AudioPolicyManagerBase13isStateInCallEi

.globl shim__ZN7android22AudioPolicyManagerBase20getMaxEffectsCpuLoadEv
shim__ZN7android22AudioPolicyManagerBase20getMaxEffectsCpuLoadEv:
bl _ZN7android22AudioPolicyManagerBase20getMaxEffectsCpuLoadEv

.globl shim__ZN7android22AudioPolicyManagerBase19getMaxEffectsMemoryEv
shim__ZN7android22AudioPolicyManagerBase19getMaxEffectsMemoryEv:
bl _ZN7android22AudioPolicyManagerBase19getMaxEffectsMemoryEv

#if 0
.globl shim__ZN7android16VolumeCustomizerD1Ev
shim__ZN7android16VolumeCustomizerD1Ev:
bl _ZN7android16VolumeCustomizerD1Ev
#endif

//#if 0

.globl shim__ZNK7android12SortedVectorIPNS_22AudioPolicyManagerBase9IOProfileEE8do_splatEPvPKvj
shim__ZNK7android12SortedVectorIPNS_22AudioPolicyManagerBase9IOProfileEE8do_splatEPvPKvj:
bl _ZNK7android12SortedVectorIPNS_22AudioPolicyManagerBase9IOProfileEE8do_splatEPvPKvj

.globl shim__ZNK7android12SortedVectorIPNS_22AudioPolicyManagerBase9IOProfileEE10do_compareEPKvS6_
shim__ZNK7android12SortedVectorIPNS_22AudioPolicyManagerBase9IOProfileEE10do_compareEPKvS6_:
bl _ZNK7android12SortedVectorIPNS_22AudioPolicyManagerBase9IOProfileEE10do_compareEPKvS6_

.globl shim__ZNK7android12SortedVectorIiE10do_compareEPKvS3_
shim__ZNK7android12SortedVectorIiE10do_compareEPKvS3_:
bl _ZNK7android12SortedVectorIiE10do_compareEPKvS3_

.globl shim__ZNK7android12SortedVectorINS_16key_value_pair_tIiPNS_22AudioPolicyManagerBase16EffectDescriptorEEEE8do_splatEPvPKvj
shim__ZNK7android12SortedVectorINS_16key_value_pair_tIiPNS_22AudioPolicyManagerBase16EffectDescriptorEEEE8do_splatEPvPKvj:
bl _ZNK7android12SortedVectorINS_16key_value_pair_tIiPNS_22AudioPolicyManagerBase16EffectDescriptorEEEE8do_splatEPvPKvj

.globl shim__ZNK7android12SortedVectorINS_16key_value_pair_tIiPNS_22AudioPolicyManagerBase16EffectDescriptorEEEE10do_compareEPKvS8_
shim__ZNK7android12SortedVectorINS_16key_value_pair_tIiPNS_22AudioPolicyManagerBase16EffectDescriptorEEEE10do_compareEPKvS8_:
bl _ZNK7android12SortedVectorINS_16key_value_pair_tIiPNS_22AudioPolicyManagerBase16EffectDescriptorEEEE10do_compareEPKvS8_

.globl shim__ZNK7android12SortedVectorINS_16key_value_pair_tI15audio_devices_tiEEE16do_move_backwardEPvPKvj
shim__ZNK7android12SortedVectorINS_16key_value_pair_tI15audio_devices_tiEEE16do_move_backwardEPvPKvj:
bl _ZNK7android12SortedVectorINS_16key_value_pair_tI15audio_devices_tiEEE16do_move_backwardEPvPKvj

.globl shim__ZNK7android12SortedVectorINS_16key_value_pair_tI15audio_devices_tiEEE8do_splatEPvPKvj
shim__ZNK7android12SortedVectorINS_16key_value_pair_tI15audio_devices_tiEEE8do_splatEPvPKvj:
bl _ZNK7android12SortedVectorINS_16key_value_pair_tI15audio_devices_tiEEE8do_splatEPvPKvj

.globl shim__ZNK7android12SortedVectorINS_16key_value_pair_tI15audio_devices_tiEEE15do_move_forwardEPvPKvj
shim__ZNK7android12SortedVectorINS_16key_value_pair_tI15audio_devices_tiEEE15do_move_forwardEPvPKvj:
bl _ZNK7android12SortedVectorINS_16key_value_pair_tI15audio_devices_tiEEE15do_move_forwardEPvPKvj

.globl shim__ZNK7android12SortedVectorINS_16key_value_pair_tI15audio_devices_tiEEE10do_compareEPKvS6_
shim__ZNK7android12SortedVectorINS_16key_value_pair_tI15audio_devices_tiEEE10do_compareEPKvS6_:
bl _ZNK7android12SortedVectorINS_16key_value_pair_tI15audio_devices_tiEEE10do_compareEPKvS6_

.globl shim__ZNK7android6VectorI14audio_format_tE16do_move_backwardEPvPKvj
shim__ZNK7android6VectorI14audio_format_tE16do_move_backwardEPvPKvj:
bl _ZNK7android6VectorI14audio_format_tE16do_move_backwardEPvPKvj

.globl shim__ZNK7android6VectorI14audio_format_tE15do_move_forwardEPvPKvj
shim__ZNK7android6VectorI14audio_format_tE15do_move_forwardEPvPKvj:
bl _ZNK7android6VectorI14audio_format_tE15do_move_forwardEPvPKvj


//#if 0
.globl shim__ZNK7android12SortedVectorINS_16key_value_pair_tINS_7String8ES2_EEE10do_compareEPKvS6_
shim__ZNK7android12SortedVectorINS_16key_value_pair_tINS_7String8ES2_EEE10do_compareEPKvS6_:
bl _ZNK7android12SortedVectorINS_16key_value_pair_tINS_7String8ES2_EEE10do_compareEPKvS6_

.globl shim__ZNK7android12SortedVectorIPNS_22AudioPolicyManagerBase9IOProfileEE15do_move_forwardEPvPKvj
shim__ZNK7android12SortedVectorIPNS_22AudioPolicyManagerBase9IOProfileEE15do_move_forwardEPvPKvj:
bl _ZNK7android12SortedVectorIPNS_22AudioPolicyManagerBase9IOProfileEE15do_move_forwardEPvPKvj

.globl shim__ZNK7android12SortedVectorINS_16key_value_pair_tINS_7String8ES2_EEE15do_move_forwardEPvPKvj
shim__ZNK7android12SortedVectorINS_16key_value_pair_tINS_7String8ES2_EEE15do_move_forwardEPvPKvj:
bl _ZNK7android12SortedVectorINS_16key_value_pair_tINS_7String8ES2_EEE15do_move_forwardEPvPKvj

.globl shim__ZNK7android12SortedVectorINS_16key_value_pair_tINS_7String8ES2_EEE8do_splatEPvPKvj
shim__ZNK7android12SortedVectorINS_16key_value_pair_tINS_7String8ES2_EEE8do_splatEPvPKvj:
bl _ZNK7android12SortedVectorINS_16key_value_pair_tINS_7String8ES2_EEE8do_splatEPvPKvj

.globl shim__ZNK7android12SortedVectorINS_16key_value_pair_tINS_7String8ES2_EEE7do_copyEPvPKvj
shim__ZNK7android12SortedVectorINS_16key_value_pair_tINS_7String8ES2_EEE7do_copyEPvPKvj:
bl _ZNK7android12SortedVectorINS_16key_value_pair_tINS_7String8ES2_EEE7do_copyEPvPKvj

.globl shim__ZNK7android12SortedVectorINS_16key_value_pair_tINS_7String8ES2_EEE10do_destroyEPvj
shim__ZNK7android12SortedVectorINS_16key_value_pair_tINS_7String8ES2_EEE10do_destroyEPvj:
bl _ZNK7android12SortedVectorINS_16key_value_pair_tINS_7String8ES2_EEE10do_destroyEPvj

.globl shim__ZNK7android12SortedVectorINS_16key_value_pair_tINS_7String8ES2_EEE12do_constructEPvj
shim__ZNK7android12SortedVectorINS_16key_value_pair_tINS_7String8ES2_EEE12do_constructEPvj:
bl _ZNK7android12SortedVectorINS_16key_value_pair_tINS_7String8ES2_EEE12do_constructEPvj

.globl shim__ZNK7android12SortedVectorIPNS_22AudioPolicyManagerBase9IOProfileEE7do_copyEPvPKvj
shim__ZNK7android12SortedVectorIPNS_22AudioPolicyManagerBase9IOProfileEE7do_copyEPvPKvj:
bl _ZNK7android12SortedVectorIPNS_22AudioPolicyManagerBase9IOProfileEE7do_copyEPvPKvj

.globl shim__ZNK7android12SortedVectorINS_16key_value_pair_tIiPNS_22AudioPolicyManagerBase16EffectDescriptorEEEE7do_copyEPvPKvj
shim__ZNK7android12SortedVectorINS_16key_value_pair_tIiPNS_22AudioPolicyManagerBase16EffectDescriptorEEEE7do_copyEPvPKvj:
bl _ZNK7android12SortedVectorINS_16key_value_pair_tIiPNS_22AudioPolicyManagerBase16EffectDescriptorEEEE7do_copyEPvPKvj

.globl shim__ZN7android22AudioPolicyManagerBase23getDeviceForInputSourceEi
shim__ZN7android22AudioPolicyManagerBase23getDeviceForInputSourceEi:
bl _ZN7android22AudioPolicyManagerBase23getDeviceForInputSourceEi

.globl shim__ZN7android22AudioPolicyManagerBase14registerEffectEP19effect_descriptor_sijii
shim__ZN7android22AudioPolicyManagerBase14registerEffectEP19effect_descriptor_sijii:
bl _ZN7android22AudioPolicyManagerBase14registerEffectEP19effect_descriptor_sijii

.globl shim__ZN7android22AudioPolicyManagerBase24getDeviceConnectionStateE15audio_devices_tPKc
shim__ZN7android22AudioPolicyManagerBase24getDeviceConnectionStateE15audio_devices_tPKc:
bl _ZN7android22AudioPolicyManagerBase24getDeviceConnectionStateE15audio_devices_tPKc

.globl shim__ZN7android22AudioPolicyManagerBase13releaseOutputEi
shim__ZN7android22AudioPolicyManagerBase13releaseOutputEi:
bl _ZN7android22AudioPolicyManagerBase13releaseOutputEi

.globl shim__ZN7android22AudioPolicyManagerBase12releaseInputEi
shim__ZN7android22AudioPolicyManagerBase12releaseInputEi:
bl _ZN7android22AudioPolicyManagerBase12releaseInputEi

.globl shim__ZNK7android22AudioPolicyManagerBase14isStreamActiveEij
shim__ZNK7android22AudioPolicyManagerBase14isStreamActiveEij:
bl _ZNK7android22AudioPolicyManagerBase14isStreamActiveEij

.globl shim__ZN7android22AudioPolicyManagerBase16needsDirectOuputE19audio_stream_type_tj14audio_format_tj20audio_output_flags_t15audio_devices_t
shim__ZN7android22AudioPolicyManagerBase16needsDirectOuputE19audio_stream_type_tj14audio_format_tj20audio_output_flags_t15audio_devices_t:
bl _ZN7android22AudioPolicyManagerBase16needsDirectOuputE19audio_stream_type_tj14audio_format_tj20audio_output_flags_t15audio_devices_t

.globl shim__ZN7android22AudioPolicyManagerBase16initStreamVolumeE19audio_stream_type_tii
shim__ZN7android22AudioPolicyManagerBase16initStreamVolumeE19audio_stream_type_tii:
bl _ZN7android22AudioPolicyManagerBase16initStreamVolumeE19audio_stream_type_tii

.globl shim__ZN7android22AudioPolicyManagerBase17setSystemPropertyEPKcS2_
shim__ZN7android22AudioPolicyManagerBase17setSystemPropertyEPKcS2_:
bl _ZN7android22AudioPolicyManagerBase17setSystemPropertyEPKcS2_

.globl shim__ZN7android22AudioPolicyManagerBase9stopInputEi
shim__ZN7android22AudioPolicyManagerBase9stopInputEi:
bl _ZN7android22AudioPolicyManagerBase9stopInputEi

.globl shim__ZN7android22AudioPolicyManagerBase12selectOutputERKNS_12SortedVectorIiEE20audio_output_flags_t
shim__ZN7android22AudioPolicyManagerBase12selectOutputERKNS_12SortedVectorIiEE20audio_output_flags_t:
bl _ZN7android22AudioPolicyManagerBase12selectOutputERKNS_12SortedVectorIiEE20audio_output_flags_t

.globl shim__ZN7android22AudioPolicyManagerBase16setEffectEnabledEPNS0_16EffectDescriptorEb
shim__ZN7android22AudioPolicyManagerBase16setEffectEnabledEPNS0_16EffectDescriptorEb:
bl _ZN7android22AudioPolicyManagerBase16setEffectEnabledEPNS0_16EffectDescriptorEb

.globl shim__ZN7android22AudioPolicyManagerBase16setEffectEnabledEib
shim__ZN7android22AudioPolicyManagerBase16setEffectEnabledEib:
bl _ZN7android22AudioPolicyManagerBase16setEffectEnabledEib

.globl shim__ZN7android22AudioPolicyManagerBase16unregisterEffectEi
shim__ZN7android22AudioPolicyManagerBase16unregisterEffectEi:
bl _ZN7android22AudioPolicyManagerBase16unregisterEffectEi

.globl shim__ZN7android22AudioPolicyManagerBase18getSituationVolumeEii
shim__ZN7android22AudioPolicyManagerBase18getSituationVolumeEii:
bl _ZN7android22AudioPolicyManagerBase18getSituationVolumeEii

.globl shim__ZN7android22AudioPolicyManagerBase11linearToLogEPA17_fi
shim__ZN7android22AudioPolicyManagerBase11linearToLogEPA17_fi:
bl _ZN7android22AudioPolicyManagerBase11linearToLogEPA17_fi

.globl shim__ZN7android22AudioPolicyManagerBase17reloadVolumeTableEi
shim__ZN7android22AudioPolicyManagerBase17reloadVolumeTableEi:
bl _ZN7android22AudioPolicyManagerBase17reloadVolumeTableEi

.globl shim__ZN7android22AudioPolicyManagerBase16printVolumeTableEv
shim__ZN7android22AudioPolicyManagerBase16printVolumeTableEv:
bl _ZN7android22AudioPolicyManagerBase16printVolumeTableEv

.globl shim__ZN7android22AudioPolicyManagerBase9addOutputEiPNS0_21AudioOutputDescriptorE
shim__ZN7android22AudioPolicyManagerBase9addOutputEiPNS0_21AudioOutputDescriptorE:
bl _ZN7android22AudioPolicyManagerBase9addOutputEiPNS0_21AudioOutputDescriptorE

.globl shim__ZN7android22AudioPolicyManagerBase12vectorsEqualERNS_12SortedVectorIiEES3_
shim__ZN7android22AudioPolicyManagerBase12vectorsEqualERNS_12SortedVectorIiEES3_:
bl _ZN7android22AudioPolicyManagerBase12vectorsEqualERNS_12SortedVectorIiEES3_

.globl shim__ZN7android22AudioPolicyManagerBase11getStrategyE19audio_stream_type_t
shim__ZN7android22AudioPolicyManagerBase11getStrategyE19audio_stream_type_t:
bl _ZN7android22AudioPolicyManagerBase11getStrategyE19audio_stream_type_t

.globl shim__ZN7android22AudioPolicyManagerBase19getDevicesForStreamE19audio_stream_type_t
shim__ZN7android22AudioPolicyManagerBase19getDevicesForStreamE19audio_stream_type_t:
bl _ZN7android22AudioPolicyManagerBase19getDevicesForStreamE19audio_stream_type_t

.globl shim__ZN7android22AudioPolicyManagerBase20getStrategyForStreamE19audio_stream_type_t
shim__ZN7android22AudioPolicyManagerBase20getStrategyForStreamE19audio_stream_type_t:
bl _ZN7android22AudioPolicyManagerBase20getStrategyForStreamE19audio_stream_type_t

.globl shim__ZN7android22AudioPolicyManagerBase23updateDeviceForStrategyEv
shim__ZN7android22AudioPolicyManagerBase23updateDeviceForStrategyEv:
bl _ZN7android22AudioPolicyManagerBase23updateDeviceForStrategyEv

.globl shim__ZN7android22AudioPolicyManagerBase14getActiveInputEv
shim__ZN7android22AudioPolicyManagerBase14getActiveInputEv:
bl _ZN7android22AudioPolicyManagerBase14getActiveInputEv

.globl shim__ZN7android22AudioPolicyManagerBase10startInputEi
shim__ZN7android22AudioPolicyManagerBase10startInputEi:
bl _ZN7android22AudioPolicyManagerBase10startInputEi

.globl shim__ZN7android22AudioPolicyManagerBase18getDeviceForVolumeE15audio_devices_t
shim__ZN7android22AudioPolicyManagerBase18getDeviceForVolumeE15audio_devices_t:
bl _ZN7android22AudioPolicyManagerBase18getDeviceForVolumeE15audio_devices_t

.globl shim__ZN7android22AudioPolicyManagerBase17getDeviceCategoryE15audio_devices_t
shim__ZN7android22AudioPolicyManagerBase17getDeviceCategoryE15audio_devices_t:
bl _ZN7android22AudioPolicyManagerBase17getDeviceCategoryE15audio_devices_t

.globl shim__ZN7android22AudioPolicyManagerBase14volIndexToAmplE15audio_devices_tRKNS0_16StreamDescriptorEi
shim__ZN7android22AudioPolicyManagerBase14volIndexToAmplE15audio_devices_tRKNS0_16StreamDescriptorEi:
bl _ZN7android22AudioPolicyManagerBase14volIndexToAmplE15audio_devices_tRKNS0_16StreamDescriptorEi

.globl shim__ZN7android22AudioPolicyManagerBase22initializeVolumeCurvesEv
shim__ZN7android22AudioPolicyManagerBase22initializeVolumeCurvesEv:
bl _ZN7android22AudioPolicyManagerBase22initializeVolumeCurvesEv

.globl shim__ZN7android22AudioPolicyManagerBase21AudioOutputDescriptor6deviceEv
shim__ZN7android22AudioPolicyManagerBase21AudioOutputDescriptor6deviceEv:
bl _ZN7android22AudioPolicyManagerBase21AudioOutputDescriptor6deviceEv

.globl shim__ZN7android22AudioPolicyManagerBase13computeVolumeEiii15audio_devices_t
shim__ZN7android22AudioPolicyManagerBase13computeVolumeEiii15audio_devices_t:
bl _ZN7android22AudioPolicyManagerBase13computeVolumeEiii15audio_devices_t

.globl shim__ZN7android22AudioPolicyManagerBase13getA2dpOutputEv
shim__ZN7android22AudioPolicyManagerBase13getA2dpOutputEv:
bl _ZN7android22AudioPolicyManagerBase13getA2dpOutputEv

.globl shim__ZN7android22AudioPolicyManagerBase20getDeviceForStrategyENS0_16routing_strategyEb
shim__ZN7android22AudioPolicyManagerBase20getDeviceForStrategyENS0_16routing_strategyEb:
bl _ZN7android22AudioPolicyManagerBase20getDeviceForStrategyENS0_16routing_strategyEb

.globl shim__ZN7android22AudioPolicyManagerBase16checkA2dpSuspendEv
shim__ZN7android22AudioPolicyManagerBase16checkA2dpSuspendEv:
bl _ZN7android22AudioPolicyManagerBase16checkA2dpSuspendEv

.globl shim__ZN7android22AudioPolicyManagerBase21AudioOutputDescriptor7latencyEv
shim__ZN7android22AudioPolicyManagerBase21AudioOutputDescriptor7latencyEv:
bl _ZN7android22AudioPolicyManagerBase21AudioOutputDescriptor7latencyEv

.globl shim__ZN7android22AudioPolicyManagerBase21AudioOutputDescriptor18sharesHwModuleWithEPKS1_
shim__ZN7android22AudioPolicyManagerBase21AudioOutputDescriptor18sharesHwModuleWithEPKS1_:
bl _ZN7android22AudioPolicyManagerBase21AudioOutputDescriptor18sharesHwModuleWithEPKS1_

.globl shim__ZN7android22AudioPolicyManagerBase21AudioOutputDescriptor14changeRefCountE19audio_stream_type_ti
shim__ZN7android22AudioPolicyManagerBase21AudioOutputDescriptor14changeRefCountE19audio_stream_type_ti:
bl _ZN7android22AudioPolicyManagerBase21AudioOutputDescriptor14changeRefCountE19audio_stream_type_ti

.globl shim__ZN7android22AudioPolicyManagerBase11closeOutputEi
shim__ZN7android22AudioPolicyManagerBase11closeOutputEi:
bl _ZN7android22AudioPolicyManagerBase11closeOutputEi

.globl shim__ZN7android22AudioPolicyManagerBase21AudioOutputDescriptor8refCountEv
shim__ZN7android22AudioPolicyManagerBase21AudioOutputDescriptor8refCountEv:
bl _ZN7android22AudioPolicyManagerBase21AudioOutputDescriptor8refCountEv

.globl shim__ZN7android22AudioPolicyManagerBase21AudioOutputDescriptor16strategyRefCountENS0_16routing_strategyE
shim__ZN7android22AudioPolicyManagerBase21AudioOutputDescriptor16strategyRefCountENS0_16routing_strategyE:
bl _ZN7android22AudioPolicyManagerBase21AudioOutputDescriptor16strategyRefCountENS0_16routing_strategyE

.globl shim__ZN7android22AudioPolicyManagerBase21AudioOutputDescriptor16supportedDevicesEv
shim__ZN7android22AudioPolicyManagerBase21AudioOutputDescriptor16supportedDevicesEv:
bl _ZN7android22AudioPolicyManagerBase21AudioOutputDescriptor16supportedDevicesEv

.globl shim__ZN7android22AudioPolicyManagerBase19getOutputsForDeviceE15audio_devices_tNS0_16routing_strategyE
shim__ZN7android22AudioPolicyManagerBase19getOutputsForDeviceE15audio_devices_tNS0_16routing_strategyE:
bl _ZN7android22AudioPolicyManagerBase19getOutputsForDeviceE15audio_devices_tNS0_16routing_strategyE

.globl shim__ZN7android22AudioPolicyManagerBase18getOutputForEffectEP19effect_descriptor_s
shim__ZN7android22AudioPolicyManagerBase18getOutputForEffectEP19effect_descriptor_s:
bl _ZN7android22AudioPolicyManagerBase18getOutputForEffectEP19effect_descriptor_s

.globl shim__ZN7android22AudioPolicyManagerBase21AudioOutputDescriptor4dumpEi
shim__ZN7android22AudioPolicyManagerBase21AudioOutputDescriptor4dumpEi:
bl _ZN7android22AudioPolicyManagerBase21AudioOutputDescriptor4dumpEi

.globl shim__ZN7android22AudioPolicyManagerBase20AudioInputDescriptorC1EPKNS0_9IOProfileE
shim__ZN7android22AudioPolicyManagerBase20AudioInputDescriptorC1EPKNS0_9IOProfileE:
bl _ZN7android22AudioPolicyManagerBase20AudioInputDescriptorC1EPKNS0_9IOProfileE

.globl shim__ZN7android22AudioPolicyManagerBase20AudioInputDescriptor4dumpEi
shim__ZN7android22AudioPolicyManagerBase20AudioInputDescriptor4dumpEi:
bl _ZN7android22AudioPolicyManagerBase20AudioInputDescriptor4dumpEi

.globl shim__ZN7android22AudioPolicyManagerBase16StreamDescriptorC1Ev
shim__ZN7android22AudioPolicyManagerBase16StreamDescriptorC1Ev:
bl _ZN7android22AudioPolicyManagerBase16StreamDescriptorC1Ev

.globl shim__ZN7android22AudioPolicyManagerBase16StreamDescriptor14getVolumeIndexE15audio_devices_t
shim__ZN7android22AudioPolicyManagerBase16StreamDescriptor14getVolumeIndexE15audio_devices_t:
bl _ZN7android22AudioPolicyManagerBase16StreamDescriptor14getVolumeIndexE15audio_devices_t

.globl shim__ZN7android22AudioPolicyManagerBase20getStreamVolumeIndexE19audio_stream_type_tPi15audio_devices_t
shim__ZN7android22AudioPolicyManagerBase20getStreamVolumeIndexE19audio_stream_type_tPi15audio_devices_t:
bl _ZN7android22AudioPolicyManagerBase20getStreamVolumeIndexE19audio_stream_type_tPi15audio_devices_t

.globl shim__ZN7android22AudioPolicyManagerBase16StreamDescriptor4dumpEi
shim__ZN7android22AudioPolicyManagerBase16StreamDescriptor4dumpEi:
bl _ZN7android22AudioPolicyManagerBase16StreamDescriptor4dumpEi

.globl shim__ZN7android22AudioPolicyManagerBase16EffectDescriptor4dumpEi
shim__ZN7android22AudioPolicyManagerBase16EffectDescriptor4dumpEi:
bl _ZN7android22AudioPolicyManagerBase16EffectDescriptor4dumpEi

.globl shim__ZN7android22AudioPolicyManagerBase8HwModuleC1EPKc
shim__ZN7android22AudioPolicyManagerBase8HwModuleC1EPKc:
bl _ZN7android22AudioPolicyManagerBase8HwModuleC1EPKc

.globl shim__ZN7android22AudioPolicyManagerBase9IOProfileC1EPNS0_8HwModuleE
shim__ZN7android22AudioPolicyManagerBase9IOProfileC1EPNS0_8HwModuleE:
bl _ZN7android22AudioPolicyManagerBase9IOProfileC1EPNS0_8HwModuleE

.globl shim__ZN7android22AudioPolicyManagerBase9IOProfileD1Ev
shim__ZN7android22AudioPolicyManagerBase9IOProfileD1Ev:
bl _ZN7android22AudioPolicyManagerBase9IOProfileD1Ev

.globl shim__ZN7android22AudioPolicyManagerBase12stringToEnumEPKNS_12StringToEnumEjPKc
shim__ZN7android22AudioPolicyManagerBase12stringToEnumEPKNS_12StringToEnumEjPKc:
bl _ZN7android22AudioPolicyManagerBase12stringToEnumEPKNS_12StringToEnumEjPKc

.globl shim__ZN7android22AudioPolicyManagerBase14parseFlagNamesEPc
shim__ZN7android22AudioPolicyManagerBase14parseFlagNamesEPc:
bl _ZN7android22AudioPolicyManagerBase14parseFlagNamesEPc

.globl shim__ZN7android22AudioPolicyManagerBase16parseDeviceNamesEPc
shim__ZN7android22AudioPolicyManagerBase16parseDeviceNamesEPc:
bl _ZN7android22AudioPolicyManagerBase16parseDeviceNamesEPc

.globl shim__ZN7android22AudioPolicyManagerBase17loadSamplingRatesEPcPNS0_9IOProfileE
shim__ZN7android22AudioPolicyManagerBase17loadSamplingRatesEPcPNS0_9IOProfileE:
bl _ZN7android22AudioPolicyManagerBase17loadSamplingRatesEPcPNS0_9IOProfileE

.globl shim__ZN7android22AudioPolicyManagerBase11loadFormatsEPcPNS0_9IOProfileE
shim__ZN7android22AudioPolicyManagerBase11loadFormatsEPcPNS0_9IOProfileE:
bl _ZN7android22AudioPolicyManagerBase11loadFormatsEPcPNS0_9IOProfileE

.globl shim__ZN7android22AudioPolicyManagerBase14loadInChannelsEPcPNS0_9IOProfileE
shim__ZN7android22AudioPolicyManagerBase14loadInChannelsEPcPNS0_9IOProfileE:
bl _ZN7android22AudioPolicyManagerBase14loadInChannelsEPcPNS0_9IOProfileE

.globl shim__ZN7android22AudioPolicyManagerBase15loadOutChannelsEPcPNS0_9IOProfileE
shim__ZN7android22AudioPolicyManagerBase15loadOutChannelsEPcPNS0_9IOProfileE:
bl _ZN7android22AudioPolicyManagerBase15loadOutChannelsEPcPNS0_9IOProfileE

.globl shim__ZN7android22AudioPolicyManagerBase9loadInputEP5cnodePNS0_8HwModuleE
shim__ZN7android22AudioPolicyManagerBase9loadInputEP5cnodePNS0_8HwModuleE:
bl _ZN7android22AudioPolicyManagerBase9loadInputEP5cnodePNS0_8HwModuleE

.globl shim__ZN7android22AudioPolicyManagerBase10loadOutputEP5cnodePNS0_8HwModuleE
shim__ZN7android22AudioPolicyManagerBase10loadOutputEP5cnodePNS0_8HwModuleE:
bl _ZN7android22AudioPolicyManagerBase10loadOutputEP5cnodePNS0_8HwModuleE

.globl shim__ZN7android22AudioPolicyManagerBase16loadGlobalConfigEP5cnode
shim__ZN7android22AudioPolicyManagerBase16loadGlobalConfigEP5cnode:
bl _ZN7android22AudioPolicyManagerBase16loadGlobalConfigEP5cnode

.globl shim__ZN7android22AudioPolicyManagerBase24defaultAudioPolicyConfigEv
shim__ZN7android22AudioPolicyManagerBase24defaultAudioPolicyConfigEv:
bl _ZN7android22AudioPolicyManagerBase24defaultAudioPolicyConfigEv

.globl shim__ZN7android22AudioPolicyManagerBase29getNewDeviceForExternalOutputE15audio_devices_tNS0_16routing_strategyE
shim__ZN7android22AudioPolicyManagerBase29getNewDeviceForExternalOutputE15audio_devices_tNS0_16routing_strategyE:
bl _ZN7android22AudioPolicyManagerBase29getNewDeviceForExternalOutputE15audio_devices_tNS0_16routing_strategyE

.globl shim__ZN7android22AudioPolicyManagerBase12getNewDeviceEib
shim__ZN7android22AudioPolicyManagerBase12getNewDeviceEib:
bl _ZN7android22AudioPolicyManagerBase12getNewDeviceEib

.globl shim__ZN7android22AudioPolicyManagerBase15getCurOutDeviceEv
shim__ZN7android22AudioPolicyManagerBase15getCurOutDeviceEv:
bl _ZN7android22AudioPolicyManagerBase15getCurOutDeviceEv

.globl shim__ZN7android22AudioPolicyManagerBase18isCurDeviceHeadsetEv
shim__ZN7android22AudioPolicyManagerBase18isCurDeviceHeadsetEv:
bl _ZN7android22AudioPolicyManagerBase18isCurDeviceHeadsetEv

.globl shim__ZN7android22AudioPolicyManagerBase14setFmRadioMuteEbi
shim__ZN7android22AudioPolicyManagerBase14setFmRadioMuteEbi:
bl _ZN7android22AudioPolicyManagerBase14setFmRadioMuteEbi

.globl shim__ZN7android22AudioPolicyManagerBase17checkAndSetVolumeEiii15audio_devices_tib
shim__ZN7android22AudioPolicyManagerBase17checkAndSetVolumeEiii15audio_devices_tib:
bl _ZN7android22AudioPolicyManagerBase17checkAndSetVolumeEiii15audio_devices_tib

.globl shim__ZN7android22AudioPolicyManagerBase13setStreamMuteEibii15audio_devices_t
shim__ZN7android22AudioPolicyManagerBase13setStreamMuteEibii15audio_devices_t:
bl _ZN7android22AudioPolicyManagerBase13setStreamMuteEibii15audio_devices_t

.globl shim__ZN7android22AudioPolicyManagerBase24handleIncallSonificationEibb
shim__ZN7android22AudioPolicyManagerBase24handleIncallSonificationEibb:
bl _ZN7android22AudioPolicyManagerBase24handleIncallSonificationEibb

.globl shim__ZN7android22AudioPolicyManagerBase15setStrategyMuteENS0_16routing_strategyEbii15audio_devices_t
shim__ZN7android22AudioPolicyManagerBase15setStrategyMuteENS0_16routing_strategyEbii15audio_devices_t:
bl _ZN7android22AudioPolicyManagerBase15setStrategyMuteENS0_16routing_strategyEbii15audio_devices_t

.globl shim__ZN7android22AudioPolicyManagerBase22checkOutputForStrategyENS0_16routing_strategyE
shim__ZN7android22AudioPolicyManagerBase22checkOutputForStrategyENS0_16routing_strategyE:
bl _ZN7android22AudioPolicyManagerBase22checkOutputForStrategyENS0_16routing_strategyE

.globl shim__ZN7android22AudioPolicyManagerBase34handleNotificationRoutingForStreamE19audio_stream_type_t
shim__ZN7android22AudioPolicyManagerBase34handleNotificationRoutingForStreamE19audio_stream_type_t:
bl _ZN7android22AudioPolicyManagerBase34handleNotificationRoutingForStreamE19audio_stream_type_t

.globl shim__ZN7android22AudioPolicyManagerBase27checkOutputForAllStrategiesEv
shim__ZN7android22AudioPolicyManagerBase27checkOutputForAllStrategiesEv:
bl _ZN7android22AudioPolicyManagerBase27checkOutputForAllStrategiesEv

.globl shim__ZN7android22AudioPolicyManagerBase10stopOutputEi19audio_stream_type_ti
shim__ZN7android22AudioPolicyManagerBase10stopOutputEi19audio_stream_type_ti:
bl _ZN7android22AudioPolicyManagerBase10stopOutputEi19audio_stream_type_ti

.globl shim__ZN7android22AudioPolicyManagerBase25checkDeviceMuteStrategiesEPNS0_21AudioOutputDescriptorE15audio_devices_tj
shim__ZN7android22AudioPolicyManagerBase25checkDeviceMuteStrategiesEPNS0_21AudioOutputDescriptorE15audio_devices_tj:
bl _ZN7android22AudioPolicyManagerBase25checkDeviceMuteStrategiesEPNS0_21AudioOutputDescriptorE15audio_devices_tj

.globl shim__ZN7android22AudioPolicyManagerBase13setPhoneStateEi
shim__ZN7android22AudioPolicyManagerBase13setPhoneStateEi:
bl _ZN7android22AudioPolicyManagerBase13setPhoneStateEi

.globl shim__ZN7android22AudioPolicyManagerBase18applyStreamVolumesEi15audio_devices_tib
shim__ZN7android22AudioPolicyManagerBase18applyStreamVolumesEi15audio_devices_tib:
bl _ZN7android22AudioPolicyManagerBase18applyStreamVolumesEi15audio_devices_tib

.globl shim__ZN7android22AudioPolicyManagerBase18getParamFromPolicyEPKc
shim__ZN7android22AudioPolicyManagerBase18getParamFromPolicyEPKc:
bl _ZN7android22AudioPolicyManagerBase18getParamFromPolicyEPKc

.globl shim__ZN7android22AudioPolicyManagerBase15setOutputDeviceEi15audio_devices_tbi
shim__ZN7android22AudioPolicyManagerBase15setOutputDeviceEi15audio_devices_tbi:
bl _ZN7android22AudioPolicyManagerBase15setOutputDeviceEi15audio_devices_tbi

.globl shim__ZN7android22AudioPolicyManagerBase11setForceUseE24audio_policy_force_use_t25audio_policy_forced_cfg_t
shim__ZN7android22AudioPolicyManagerBase11setForceUseE24audio_policy_force_use_t25audio_policy_forced_cfg_t:
bl _ZN7android22AudioPolicyManagerBase11setForceUseE24audio_policy_force_use_t25audio_policy_forced_cfg_t

.globl shim__ZN7android22AudioPolicyManagerBase20setStreamVolumeIndexE19audio_stream_type_ti15audio_devices_t
shim__ZN7android22AudioPolicyManagerBase20setStreamVolumeIndexE19audio_stream_type_ti15audio_devices_t:
bl _ZN7android22AudioPolicyManagerBase20setStreamVolumeIndexE19audio_stream_type_ti15audio_devices_t

.globl shim__ZN7android22AudioPolicyManagerBase11startOutputEi19audio_stream_type_ti
shim__ZN7android22AudioPolicyManagerBase11startOutputEi19audio_stream_type_ti:
bl _ZN7android22AudioPolicyManagerBase11startOutputEi19audio_stream_type_ti

.globl shim__ZN7android22AudioPolicyManagerBase26setFmDeviceConnectionStateE15audio_devices_t24audio_policy_dev_state_t
shim__ZN7android22AudioPolicyManagerBase26setFmDeviceConnectionStateE15audio_devices_t24audio_policy_dev_state_t:
bl _ZN7android22AudioPolicyManagerBase26setFmDeviceConnectionStateE15audio_devices_t24audio_policy_dev_state_t

.globl shim__ZN7android22AudioPolicyManagerBase20parsingDeviceAddressEPKcPiS3_S3_
shim__ZN7android22AudioPolicyManagerBase20parsingDeviceAddressEPKcPiS3_S3_:
bl _ZN7android22AudioPolicyManagerBase20parsingDeviceAddressEPKcPiS3_S3_

.globl shim__ZN7android22AudioPolicyManagerBase8HwModuleD1Ev
shim__ZN7android22AudioPolicyManagerBase8HwModuleD1Ev:
bl _ZN7android22AudioPolicyManagerBase8HwModuleD1Ev

.globl shim__ZN7android22AudioPolicyManagerBase12loadHwModuleEP5cnode
shim__ZN7android22AudioPolicyManagerBase12loadHwModuleEP5cnode:
bl _ZN7android22AudioPolicyManagerBase12loadHwModuleEP5cnode

.globl shim__ZN7android22AudioPolicyManagerBase13loadHwModulesEP5cnode
shim__ZN7android22AudioPolicyManagerBase13loadHwModulesEP5cnode:
bl _ZN7android22AudioPolicyManagerBase13loadHwModulesEP5cnode

.globl shim__ZN7android22AudioPolicyManagerBase21loadAudioPolicyConfigEPKc
shim__ZN7android22AudioPolicyManagerBase21loadAudioPolicyConfigEPKc:
bl _ZN7android22AudioPolicyManagerBase21loadAudioPolicyConfigEPKc

.globl shim__ZN7android22AudioPolicyManagerBaseD1Ev
shim__ZN7android22AudioPolicyManagerBaseD1Ev:
bl _ZN7android22AudioPolicyManagerBaseD1Ev

.globl shim__ZN7android22AudioPolicyManagerBaseD0Ev
shim__ZN7android22AudioPolicyManagerBaseD0Ev:
bl _ZN7android22AudioPolicyManagerBaseD0Ev

.globl shim__ZN7android22AudioPolicyManagerBase9IOProfile4dumpEi
shim__ZN7android22AudioPolicyManagerBase9IOProfile4dumpEi:
bl _ZN7android22AudioPolicyManagerBase9IOProfile4dumpEi

.globl shim__ZN7android22AudioPolicyManagerBase8HwModule4dumpEi
shim__ZN7android22AudioPolicyManagerBase8HwModule4dumpEi:
bl _ZN7android22AudioPolicyManagerBase8HwModule4dumpEi

.globl shim__ZN7android22AudioPolicyManagerBase4dumpEi
shim__ZN7android22AudioPolicyManagerBase4dumpEi:
bl _ZN7android22AudioPolicyManagerBase4dumpEi

.globl shim__ZNK7android22AudioPolicyManagerBase9IOProfile19isCompatibleProfileE15audio_devices_tjjj20audio_output_flags_t
shim__ZNK7android22AudioPolicyManagerBase9IOProfile19isCompatibleProfileE15audio_devices_tjjj20audio_output_flags_t:
bl _ZNK7android22AudioPolicyManagerBase9IOProfile19isCompatibleProfileE15audio_devices_tjjj20audio_output_flags_t

.globl shim__ZN7android22AudioPolicyManagerBase15getInputProfileE15audio_devices_tjjj
shim__ZN7android22AudioPolicyManagerBase15getInputProfileE15audio_devices_tjjj:
bl _ZN7android22AudioPolicyManagerBase15getInputProfileE15audio_devices_tjjj

.globl shim__ZN7android22AudioPolicyManagerBase8getInputEijjj20audio_in_acoustics_t
shim__ZN7android22AudioPolicyManagerBase8getInputEijjj20audio_in_acoustics_t:
bl _ZN7android22AudioPolicyManagerBase8getInputEijjj20audio_in_acoustics_t

.globl shim__ZN7android22AudioPolicyManagerBase25getProfileForDirectOutputE15audio_devices_tjjj20audio_output_flags_t
shim__ZN7android22AudioPolicyManagerBase25getProfileForDirectOutputE15audio_devices_tjjj20audio_output_flags_t:
bl _ZN7android22AudioPolicyManagerBase25getProfileForDirectOutputE15audio_devices_tjjj20audio_output_flags_t

.globl shim__ZN7android22AudioPolicyManagerBase21AudioOutputDescriptorC1EPKNS0_9IOProfileE
shim__ZN7android22AudioPolicyManagerBase21AudioOutputDescriptorC1EPKNS0_9IOProfileE:
bl _ZN7android22AudioPolicyManagerBase21AudioOutputDescriptorC1EPKNS0_9IOProfileE

.globl shim__ZN7android22AudioPolicyManagerBase9getOutputE19audio_stream_type_tjjj20audio_output_flags_t
shim__ZN7android22AudioPolicyManagerBase9getOutputE19audio_stream_type_tjjj20audio_output_flags_t:
bl _ZN7android22AudioPolicyManagerBase9getOutputE19audio_stream_type_tjjj20audio_output_flags_t

.globl shim__ZN7android22AudioPolicyManagerBaseC1EPNS_26AudioPolicyClientInterfaceE
shim__ZN7android22AudioPolicyManagerBaseC1EPNS_26AudioPolicyClientInterfaceE:
bl _ZN7android22AudioPolicyManagerBaseC1EPNS_26AudioPolicyClientInterfaceE

.globl shim__ZN7android22AudioPolicyManagerBase21checkOutputsForDeviceE15audio_devices_t24audio_policy_dev_state_tRNS_12SortedVectorIiEE
shim__ZN7android22AudioPolicyManagerBase21checkOutputsForDeviceE15audio_devices_t24audio_policy_dev_state_tRNS_12SortedVectorIiEE:
bl _ZN7android22AudioPolicyManagerBase21checkOutputsForDeviceE15audio_devices_t24audio_policy_dev_state_tRNS_12SortedVectorIiEE

.globl shim__ZN7android22AudioPolicyManagerBase24setDeviceConnectionStateE15audio_devices_t24audio_policy_dev_state_tPKc
shim__ZN7android22AudioPolicyManagerBase24setDeviceConnectionStateE15audio_devices_t24audio_policy_dev_state_tPKc:
bl _ZN7android22AudioPolicyManagerBase24setDeviceConnectionStateE15audio_devices_t24audio_policy_dev_state_tPKc

.globl shim__ZN7android23AudioPolicyCompatClient12loadHwModuleEPKc
shim__ZN7android23AudioPolicyCompatClient12loadHwModuleEPKc:
bl _ZN7android23AudioPolicyCompatClient12loadHwModuleEPKc

.globl shim__ZN7android23AudioPolicyCompatClient10openOutputEiP15audio_devices_tPjP14audio_format_tS3_S3_20audio_output_flags_t
shim__ZN7android23AudioPolicyCompatClient10openOutputEiP15audio_devices_tPjP14audio_format_tS3_S3_20audio_output_flags_t:
bl _ZN7android23AudioPolicyCompatClient10openOutputEiP15audio_devices_tPjP14audio_format_tS3_S3_20audio_output_flags_t

.globl shim__ZN7android23AudioPolicyCompatClient19openDuplicateOutputEii
shim__ZN7android23AudioPolicyCompatClient19openDuplicateOutputEii:
bl _ZN7android23AudioPolicyCompatClient19openDuplicateOutputEii

.globl shim__ZN7android23AudioPolicyCompatClient11closeOutputEi
shim__ZN7android23AudioPolicyCompatClient11closeOutputEi:
bl _ZN7android23AudioPolicyCompatClient11closeOutputEi

.globl shim__ZN7android23AudioPolicyCompatClient13suspendOutputEi
shim__ZN7android23AudioPolicyCompatClient13suspendOutputEi:
bl _ZN7android23AudioPolicyCompatClient13suspendOutputEi

.globl shim__ZN7android23AudioPolicyCompatClient13restoreOutputEi
shim__ZN7android23AudioPolicyCompatClient13restoreOutputEi:
bl _ZN7android23AudioPolicyCompatClient13restoreOutputEi

.globl shim__ZN7android23AudioPolicyCompatClient9openInputEiP15audio_devices_tPjP14audio_format_tS3_
shim__ZN7android23AudioPolicyCompatClient9openInputEiP15audio_devices_tPjP14audio_format_tS3_:
bl _ZN7android23AudioPolicyCompatClient9openInputEiP15audio_devices_tPjP14audio_format_tS3_

.globl shim__ZN7android23AudioPolicyCompatClient10closeInputEi
shim__ZN7android23AudioPolicyCompatClient10closeInputEi:
bl _ZN7android23AudioPolicyCompatClient10closeInputEi

.globl shim__ZN7android23AudioPolicyCompatClient15setStreamOutputE19audio_stream_type_ti
shim__ZN7android23AudioPolicyCompatClient15setStreamOutputE19audio_stream_type_ti:
bl _ZN7android23AudioPolicyCompatClient15setStreamOutputE19audio_stream_type_ti

.globl shim__ZN7android23AudioPolicyCompatClient11moveEffectsEiii
shim__ZN7android23AudioPolicyCompatClient11moveEffectsEiii:
bl _ZN7android23AudioPolicyCompatClient11moveEffectsEiii

.globl shim__ZN7android23AudioPolicyCompatClient13setParametersEiRKNS_7String8Ei
shim__ZN7android23AudioPolicyCompatClient13setParametersEiRKNS_7String8Ei:
bl _ZN7android23AudioPolicyCompatClient13setParametersEiRKNS_7String8Ei

.globl shim__ZN7android23AudioPolicyCompatClient15setStreamVolumeE19audio_stream_type_tfii
shim__ZN7android23AudioPolicyCompatClient15setStreamVolumeE19audio_stream_type_tfii:
bl _ZN7android23AudioPolicyCompatClient15setStreamVolumeE19audio_stream_type_tfii

.globl shim__ZN7android23AudioPolicyCompatClient9startToneENS_13ToneGenerator9tone_typeE19audio_stream_type_t
shim__ZN7android23AudioPolicyCompatClient9startToneENS_13ToneGenerator9tone_typeE19audio_stream_type_t:
bl _ZN7android23AudioPolicyCompatClient9startToneENS_13ToneGenerator9tone_typeE19audio_stream_type_t

.globl shim__ZN7android23AudioPolicyCompatClient8stopToneEv
shim__ZN7android23AudioPolicyCompatClient8stopToneEv:
bl _ZN7android23AudioPolicyCompatClient8stopToneEv

.globl shim__ZN7android23AudioPolicyCompatClient14setVoiceVolumeEfi
shim__ZN7android23AudioPolicyCompatClient14setVoiceVolumeEfi:
bl _ZN7android23AudioPolicyCompatClient14setVoiceVolumeEfi

.globl shim__ZN7android23AudioPolicyCompatClient13getParametersEiRKNS_7String8E
shim__ZN7android23AudioPolicyCompatClient13getParametersEiRKNS_7String8E:
bl _ZN7android23AudioPolicyCompatClient13getParametersEiRKNS_7String8E

#if 0
.globl shim__ZN7android16VolumeCustomizer17getActualFilePathEPc
shim__ZN7android16VolumeCustomizer17getActualFilePathEPc:
bl _ZN7android16VolumeCustomizer17getActualFilePathEPc

.globl shim__ZN7android16VolumeCustomizer10getUsingDBEv
shim__ZN7android16VolumeCustomizer10getUsingDBEv:
bl _ZN7android16VolumeCustomizer10getUsingDBEv

.globl shim__ZN7android16VolumeCustomizer8fileCopyEP7__sFILES2_
shim__ZN7android16VolumeCustomizer8fileCopyEP7__sFILES2_:
bl _ZN7android16VolumeCustomizer8fileCopyEP7__sFILES2_

.globl shim__ZN7android16VolumeCustomizer9recoverDBENS0_13recovery_modeE
shim__ZN7android16VolumeCustomizer9recoverDBENS0_13recovery_modeE:
bl _ZN7android16VolumeCustomizer9recoverDBENS0_13recovery_modeE

.globl shim__ZN7android16VolumeCustomizer7calcCRCEPKhlm
shim__ZN7android16VolumeCustomizer7calcCRCEPKhlm:
bl _ZN7android16VolumeCustomizer7calcCRCEPKhlm

.globl shim__ZN7android16VolumeCustomizer6getCRCEP7__sFILE
shim__ZN7android16VolumeCustomizer6getCRCEP7__sFILE:
bl _ZN7android16VolumeCustomizer6getCRCEP7__sFILE

.globl shim__ZN7android16VolumeCustomizer8checkCRCEP7__sFILES2_
shim__ZN7android16VolumeCustomizer8checkCRCEP7__sFILES2_:
bl _ZN7android16VolumeCustomizer8checkCRCEP7__sFILES2_

.globl shim__ZN7android16VolumeCustomizer6initDBEv
shim__ZN7android16VolumeCustomizer6initDBEv:
bl _ZN7android16VolumeCustomizer6initDBEv

.globl shim__ZN7android16VolumeCustomizer10executeSqlEPA17_fPKc
shim__ZN7android16VolumeCustomizer10executeSqlEPA17_fPKc:
bl _ZN7android16VolumeCustomizer10executeSqlEPA17_fPKc

.globl shim__ZN7android16VolumeCustomizer16readStreamVolumeEPA17_fPcPKc
shim__ZN7android16VolumeCustomizer16readStreamVolumeEPA17_fPcPKc:
bl _ZN7android16VolumeCustomizer16readStreamVolumeEPA17_fPcPKc

.globl shim__ZN7android16VolumeCustomizer19readSituationVolumeEPA17_fPKc
shim__ZN7android16VolumeCustomizer19readSituationVolumeEPA17_fPKc:
bl _ZN7android16VolumeCustomizer19readSituationVolumeEPA17_fPKc

.globl shim__ZN7android16VolumeCustomizerC1Ev
shim__ZN7android16VolumeCustomizerC1Ev:
bl _ZN7android16VolumeCustomizerC1Ev

.globl shim__ZN7android16VolumeCustomizer14createCRCTableEv
shim__ZN7android16VolumeCustomizer14createCRCTableEv:
bl _ZN7android16VolumeCustomizer14createCRCTableEv

.globl shim__ZN7android16VolumeCustomizer14enableCRCCheckEb
shim__ZN7android16VolumeCustomizer14enableCRCCheckEb:
bl _ZN7android16VolumeCustomizer14enableCRCCheckEb

#endif

.globl shim__ZN7android14AudioParameterD1Ev
shim__ZN7android14AudioParameterD1Ev:
bl _ZN7android14AudioParameterD1Ev

.globl shim__ZN7android14AudioParameterD0Ev
shim__ZN7android14AudioParameterD0Ev:
bl _ZN7android14AudioParameterD0Ev

.globl shim__ZN7android14AudioParameter8toStringEv
shim__ZN7android14AudioParameter8toStringEv:
bl _ZN7android14AudioParameter8toStringEv

.globl shim__ZN7android14AudioParameter5getAtEjRNS_7String8ES2_
shim__ZN7android14AudioParameter5getAtEjRNS_7String8ES2_:
bl _ZN7android14AudioParameter5getAtEjRNS_7String8ES2_

.globl shim__ZN7android14AudioParameter6removeERKNS_7String8E
shim__ZN7android14AudioParameter6removeERKNS_7String8E:
bl _ZN7android14AudioParameter6removeERKNS_7String8E

.globl shim__ZN7android14AudioParameter3getERKNS_7String8ERS1_
shim__ZN7android14AudioParameter3getERKNS_7String8ERS1_:
bl _ZN7android14AudioParameter3getERKNS_7String8ERS1_

.globl shim__ZN7android14AudioParameter8getFloatERKNS_7String8ERf
shim__ZN7android14AudioParameter8getFloatERKNS_7String8ERf:
bl _ZN7android14AudioParameter8getFloatERKNS_7String8ERf

.globl shim__ZN7android14AudioParameter6getIntERKNS_7String8ERi
shim__ZN7android14AudioParameter6getIntERKNS_7String8ERi:
bl _ZN7android14AudioParameter6getIntERKNS_7String8ERi

.globl shim__ZN7android14AudioParameter3addERKNS_7String8ES3_
shim__ZN7android14AudioParameter3addERKNS_7String8ES3_:
bl _ZN7android14AudioParameter3addERKNS_7String8ES3_

.globl shim__ZN7android14AudioParameter8addFloatERKNS_7String8Ef
shim__ZN7android14AudioParameter8addFloatERKNS_7String8Ef:
bl _ZN7android14AudioParameter8addFloatERKNS_7String8Ef

.globl shim__ZN7android14AudioParameter6addIntERKNS_7String8Ei
shim__ZN7android14AudioParameter6addIntERKNS_7String8Ei:
bl _ZN7android14AudioParameter6addIntERKNS_7String8Ei

.globl shim__ZN7android14AudioParameterC1ERKNS_7String8E
shim__ZN7android14AudioParameterC1ERKNS_7String8E:
bl _ZN7android14AudioParameterC1ERKNS_7String8E
//#endif

