ste_omx_ens_component_register
_ZN14Camera_CtrllibC1Eb
_ZN14Camera_Ctrllib25Camera_CtrlLib_ModuleInitEv
_ZN14Camera_Ctrllib7GetByteEP12CamCtrl_IO_tPh
_ZN14Camera_Ctrllib19ClearUsedPropertiesEP20CamCtrl_DriverData_t
_ZN14Camera_Ctrllib15FreeParsedItemsEP20CamCtrl_DriverData_t
_ZN14Camera_Ctrllib27Camera_CtrlLib_UnloadDriverEPK20CamCtrl_DriverData_tPv
_ZN14Camera_Ctrllib25InsertIntoDefinitionArrayEP20CamCtrl_DriverData_tPKhS3_iPi
_ZN14Camera_Ctrllib8FindItemEPK20CamCtrl_DriverData_tPKhPPhPi
_ZN14Camera_Ctrllib20FindNextMatchingItemEPK20CamCtrl_DriverData_tPK12ParsedItem_tPKh
_ZN14Camera_Ctrllib10FindItemIdEPK20CamCtrl_DriverData_tPKhPi
_ZN14Camera_Ctrllib12FindItemByIdEPK20CamCtrl_DriverData_tiPPhPi
_ZN14Camera_Ctrllib14FindDefinitionEPK20CamCtrl_DriverData_t24CamCtrl_DefinitionName_tPPhPi
_ZN14Camera_Ctrllib19GetNextDelimiterPosEPKhh
_ZN14Camera_Ctrllib20GetNextDelimiterPos2EPKhhh
_ZN14Camera_Ctrllib12ReadNextCharEPPhPi
_ZN14Camera_Ctrllib12ConvertDigitEh
_ZN14Camera_Ctrllib17UpdateParameterIdEPhia
_ZN14Camera_Ctrllib12SeqCommand_eEP20CamCtrl_DriverData_tPPhPiP22CamCtrl_SequenceData_t
_ZN14Camera_Ctrllib12SeqCommand_aEP20CamCtrl_DriverData_tPPhPi
_ZN14Camera_Ctrllib24Camera_CtrlLib_ReadTableEPK20CamCtrl_DriverData_tiPti
_ZN14Camera_Ctrllib13ConvertNumberEPKhih
_ZN14Camera_Ctrllib12SeqCommand_tEPPhPiP22CamCtrl_SequenceData_t
_ZN14Camera_Ctrllib21GetValuesFromSequenceEPKhiPi
_ZN14Camera_Ctrllib19StorePropertyValuesEP20CamCtrl_DriverData_tiPKh
_ZN14Camera_Ctrllib23StorePropertyPropertiesEP20CamCtrl_DriverData_tPhi
_ZN14Camera_Ctrllib13GetI2CAddressEP20CamCtrl_DriverData_t
_ZN14Camera_Ctrllib13GetSizeConfigEPhiP26HAL_Gr_Camera_SizeConfig_tPi
_ZN14Camera_Ctrllib28Camera_CtrlLib_GetSizeConfigEPK20CamCtrl_DriverData_thP26HAL_Gr_Camera_SizeConfig_t
_ZN14Camera_Ctrllib39Camera_CtrlLib_GET_MAX_TOUCH_X_Y_VALUESEPK20CamCtrl_DriverData_t
_ZN14Camera_Ctrllib39Camera_CtrlLib_GetNeededJPEG_BufferSizeEPK20CamCtrl_DriverData_tiPi
_ZN14Camera_Ctrllib29Camera_CtrlLib_GetSsFrameSkipEPK20CamCtrl_DriverData_t
_ZN14Camera_Ctrllib29Camera_CtrlLib_GetVfFrameSkipEPK20CamCtrl_DriverData_t
_ZN14Camera_Ctrllib36Camera_CtrlLib_GetAutoFlashThresholdEPK20CamCtrl_DriverData_tPmS3_
_ZN14Camera_Ctrllib26Camera_CtrlLib_GetExifInfoEPK20CamCtrl_DriverData_tiPhS3_S3_S3_S3_S3_
_ZN14Camera_Ctrllib28Camera_CtrlLib_GetPipeNumberEPK20CamCtrl_DriverData_t
_ZN14Camera_Ctrllib33Camera_CtrlLib_GetWatchdogTimeoutEPK20CamCtrl_DriverData_t
_ZN14Camera_Ctrllib28Camera_CtrlLib_GetDriverInfoEPK20CamCtrl_DriverData_tiiPhS3_S3_S3_S3_
_ZN14Camera_Ctrllib30Camera_CtrlLib_Get_ccp2_configEPK20CamCtrl_DriverData_tPtS3_
_ZN14Camera_Ctrllib39Camera_CtrlLib_Get_cam_interface_configEPK20CamCtrl_DriverData_tPhS3_S3_P24CamCtrl_CsiIntf_Config_t
_ZN14Camera_Ctrllib10IsRegisterEhPh
_ZN14Camera_Ctrllib16GetRegisterIndexEh
_ZN14Camera_Ctrllib13SeqCommand_prEP20CamCtrl_DriverData_tPPhPi
_ZN14Camera_Ctrllib16SeqCommand_aritmEhP20CamCtrl_DriverData_tPPhPiP22CamCtrl_SequenceData_t
_ZN14Camera_Ctrllib13SeqCommand_gtEP20CamCtrl_DriverData_tPPhPi
_ZN14Camera_Ctrllib13SeqCommand_ltEP20CamCtrl_DriverData_tPPhPi
_ZN14Camera_Ctrllib12SeqCommand_zEP20CamCtrl_DriverData_tPPhPi
_ZN14Camera_Ctrllib12SeqCommand_wEP20CamCtrl_DriverData_tPPhPiP22CamCtrl_SequenceData_t
_ZN14Camera_Ctrllib12SeqCommand_sEP20CamCtrl_DriverData_tPPhPiP22CamCtrl_SequenceData_t
_ZN14Camera_Ctrllib12SeqCommand_pEP20CamCtrl_DriverData_tPPhPi
_ZN14Camera_Ctrllib12SeqCommand_mEP20CamCtrl_DriverData_tPPhPi
_ZN14Camera_Ctrllib12SeqCommand_gEP20CamCtrl_DriverData_tPPhPi
_ZN14Camera_Ctrllib12SeqCommand_cEP20CamCtrl_DriverData_tPPhPiP22CamCtrl_SequenceData_t
_ZN14Camera_Ctrllib12SeqCommand_bEP20CamCtrl_DriverData_tPPhPiP22CamCtrl_SequenceData_t
_ZN14Camera_Ctrllib21ComparePartialStringsEPKhS1_i
_ZN14Camera_Ctrllib16HandleParsedItemEP20CamCtrl_DriverData_tPKhiPhii
_ZN14Camera_Ctrllib9ParseFileEP20CamCtrl_DriverData_t
_ZN14Camera_Ctrllib20LoadDriver_ContinuedEv
_ZN14Camera_Ctrllib25Camera_CtrlLib_LoadDriverEPv
_ZN14Camera_Ctrllib7DoDelayEi
_ZN14Camera_Ctrllib12SeqCommand_dEPPhPi
_ZN14Camera_Ctrllib33Camera_CtrlLib_Get_LensParametersEPK20CamCtrl_DriverData_tPiS3_S3_
_ZN14Camera_Ctrllib9I2C_WriteEhtPhaa
_ZN14Camera_Ctrllib12SeqCommand_fEP20CamCtrl_DriverData_tP22CamCtrl_SequenceData_t
_ZN14Camera_Ctrllib8I2C_ReadEhtPKhhtaaPh
_ZN14Camera_Ctrllib14I2C_SimpleReadEhtaaPh
_ZN14Camera_Ctrllib12SeqCommand_rEP20CamCtrl_DriverData_tPPhPiP22CamCtrl_SequenceData_tS3_S4_
_ZN14Camera_Ctrllib19ExecuteSequencePartEP20CamCtrl_DriverData_tPhiP22CamCtrl_SequenceData_tPS2_Pi
_ZN14Camera_Ctrllib27ExecuteSequenceWithInbufferEP20CamCtrl_DriverData_tPhiPKhPiS2_i
_ZN14Camera_Ctrllib15ExecuteSequenceEP20CamCtrl_DriverData_tPhiPKhPi
_ZN14Camera_Ctrllib29Camera_CtrlLib_ExposureUnLockEPK20CamCtrl_DriverData_tPi
_ZN14Camera_Ctrllib24Camera_CtrlLib_AwbUnLockEPK20CamCtrl_DriverData_tPi
_ZN14Camera_Ctrllib27Camera_CtrlLib_ExposureLockEPK20CamCtrl_DriverData_tPi
_ZN14Camera_Ctrllib22Camera_CtrlLib_AwbLockEPK20CamCtrl_DriverData_tPi
_ZN14Camera_Ctrllib26Camera_CtrlLib_SensorResetEPK20CamCtrl_DriverData_t
_ZN14Camera_Ctrllib26Camera_CtrlLib_SetRegisterEPK20CamCtrl_DriverData_titi
_ZN14Camera_Ctrllib26Camera_CtrlLib_GetRegisterEPK20CamCtrl_DriverData_tiPti
_ZN14Camera_Ctrllib29Camera_CtrlLib_VerifySnapshotEPK20CamCtrl_DriverData_tPi
_ZN14Camera_Ctrllib27Camera_CtrlLib_TakeSnapshotEPK20CamCtrl_DriverData_tPi
_ZN14Camera_Ctrllib27Camera_CtrlLib_StopSnapshotEPK20CamCtrl_DriverData_tPi
_ZN14Camera_Ctrllib28Camera_CtrlLib_StartSnapshotEPK20CamCtrl_DriverData_tPi
_ZN14Camera_Ctrllib29Camera_CtrlLib_ReturnViewFindEPK20CamCtrl_DriverData_tPi
_ZN14Camera_Ctrllib27Camera_CtrlLib_StopViewFindEPK20CamCtrl_DriverData_tPi
_ZN14Camera_Ctrllib28Camera_CtrlLib_StartViewFindEPK20CamCtrl_DriverData_tPi
_ZN14Camera_Ctrllib30Camera_CtrlLib_SetSnapshotSizeEPK20CamCtrl_DriverData_thPi
_ZN14Camera_Ctrllib30Camera_CtrlLib_SetViewfindSizeEPK20CamCtrl_DriverData_thPi
_ZN14Camera_Ctrllib29Camera_CtrlLib_GetFocusStatusEPK20CamCtrl_DriverData_tPi
_ZN14Camera_Ctrllib26Camera_CtrlLib_GetPropertyEPK20CamCtrl_DriverData_thPi
_ZN14Camera_Ctrllib26Camera_CtrlLib_SetPropertyEPK20CamCtrl_DriverData_thiPi
_ZN14Camera_Ctrllib12SeqCommand_uEP20CamCtrl_DriverData_tPPhPiP22CamCtrl_SequenceData_t
_ZN14Camera_Ctrllib29Camera_CtrlLib_SetDigitalZoomEPK20CamCtrl_DriverData_tiPi
_ZN14Camera_Ctrllib27Camera_CtrlLib_DeinitializeEPK20CamCtrl_DriverData_tPi
_ZN14Camera_Ctrllib25Camera_CtrlLib_InitializeEPK20CamCtrl_DriverData_tPi
_ZN14Camera_Ctrllib22Camera_CtrlLib_IsAliveEPK20CamCtrl_DriverData_t
_ZN10CopModeMgrC1Ev
_ZN10CopModeMgr19UpdateCurrentOpModeEv
_ZN6CAM_SM21BackPreview_AutoPauseEPK11s_scf_event
_ZN6CAM_SM41EnteringPreview_DoingPreviewConfigurationEPK11s_scf_event
_ZN6CAM_SM11BackPreviewEPK11s_scf_event
_ZN6CAM_SM14ExitingPreviewEPK11s_scf_event
_ZN6CAM_SM27ExitingPreview_StoppingVpipEPK11s_scf_event
_ZN6CAM_SM24BackPreview_StartingVpipEPK11s_scf_event
_ZN6CAM_SM15EnteringPreviewEPK11s_scf_event
_ZN6CAM_SM27ExitingCapture_StoppingVpipEPK11s_scf_event
_ZN6CAM_SM14ExitingCaptureEPK11s_scf_event
_ZN6CAM_SM15EnteringCaptureEPK11s_scf_event
_ZN6CAM_SM41ExitingCapture_CancelCaptureConfigurationEPK11s_scf_event
_ZN6CAM_SM41EnteringCapture_DoingCaptureConfigurationEPK11s_scf_event
_ZN6CAM_SM27EnteringCapture_SendBuffersEPK11s_scf_event
_ZN6CAM_SM30EnteringCapture_FillBufferDoneEPK11s_scf_event
_ZN19CSiaPlatformManagerC1Ev
_ZN19CSiaPlatformManager4initE17enumExtCameraSlot
_ZN19CSiaPlatformManager6configE17enumExtCameraSlot
_ZN19CSiaPlatformManager6deinitE17enumExtCameraSlot
_ZN19CSiaPlatformManager15setExtIspctlCfgE19Iext_ispctl_api_cfg
_ZN6CAM_SM22InitingYUVCameraModuleEPK11s_scf_event
_ZN6CAM_SM7BootingEPK11s_scf_event
_ZN6Camera14fillThisBufferEP20OMX_BUFFERHEADERTYPE
_Z20beginAutoFocusThreadPv
_ZN6Camera9configureEv
_ZN13Sensor_ISX0127touchAFEiiii
_ZN16Sensor_SR030PC5011getExifInfoEv
_ZN14Sensor_DB8131M11getExifInfoEv
_ZN12CameraSensor11getExifInfoEv
_ZN15Sensor_S5K6AAFX11getExifInfoEv
_ZN13Sensor_ISX01211getExifInfoEv
_ZN15Sensor_S5K4ECGX11getExifInfoEv
_ZN15Sensor_S5K4ECGX7touchAFEiiii
_ZN13Sensor_ISX01215autoFocusCancelEv
_ZN15Sensor_S5K4ECGX15autoFocusCancelEv
_ZN15Sensor_S5K4ECGX14autoFocusRangeEv
_ZN12CameraSensor12WaitVB0FrameEi
_ZN12CameraSensor9autoFocusEv
_ZN13Sensor_ISX01214autoFocusRangeEv
_ZN12CameraSensor15autoFocusCancelEv
_ZN12CameraSensor14autoFocusRangeEv
_ZN15Sensor_S5K4ECGX9autoFocusEv
_ZN12CameraSensor15autoFocusThreadEv
_ZThn128_N6Camera10configuredEt
_ZN6Camera10configuredEt
_ZThn140_N6Camera6signalEv
_ZN6Camera6signalEv
_ZN6Camera14retrieveConfigE13OMX_INDEXTYPEPv
_ZThn132_N6Camera5errorE11e_grabErrort12e_grabPipeID
_ZN6Camera5errorE11e_grabErrort12e_grabPipeID
_ZN12CameraSensor7touchAFEiiii
_ZN12CameraSensorD1Ev
_ZN16Sensor_SR030PC50D1Ev
_ZN16Sensor_SR030PC50D0Ev
_ZN14Sensor_DB8131MD1Ev
_ZN14Sensor_DB8131MD0Ev
_ZN15Sensor_S5K6AAFXD1Ev
_ZN15Sensor_S5K6AAFXD0Ev
_ZN13Sensor_ISX012D1Ev
_ZN13Sensor_ISX012D0Ev
_ZN15Sensor_S5K4ECGXD1Ev
_ZN15Sensor_S5K4ECGXD0Ev
_ZN12CameraSensorD0Ev
_ZN6Camera15emptyThisBufferEP20OMX_BUFFERHEADERTYPE
_ZThn136_N6Camera5debugE11e_grabDebugtttm
_ZN6Camera5debugE11e_grabDebugtttm
_ZThn136_N6Camera5errorE11e_grabErrorttm
_ZN6Camera5errorE11e_grabErrorttm
_ZThn136_N6Camera4infoE10e_grabInfotm
_ZN6Camera4infoE10e_grabInfotm
_ZThn128_N6Camera20clockwaitingforstartEt
_ZN6Camera20clockwaitingforstartEt
_ZThn128_N6Camera12clockrunningEt
_ZN6Camera12clockrunningEt
_ZN6Camera11instantiateEv
_ZN6Camera21doSpecificSendCommandE22t_xyuv_OMX_COMMANDTYPEmR8OMX_BOOL
_ZN6Camera11applyConfigE13OMX_INDEXTYPEPv
_ZN6Camera18fillBufferDoneVPB0EP20OMX_BUFFERHEADERTYPE
_ZN6Camera18fillBufferDoneVPB1EP20OMX_BUFFERHEADERTYPE
_ZN6Camera14fillBufferDoneEP20OMX_BUFFERHEADERTYPE
_ZN6Camera11constructSMER13ENS_Component
_ZN6Camera25doSpecificEventHandler_cbE20t_xyuv_OMX_EVENTTYPEmmR8OMX_BOOL
_ZN6Camera9destroySMEv
_ZN6Camera13deInstantiateEv
_ZN6Camera12configureIPPEi
_ZN6Camera4stopEv
_ZThn140_N6CameraD1Ev
_ZThn136_N6CameraD1Ev
_ZThn132_N6CameraD1Ev
_ZThn128_N6CameraD1Ev
_ZThn16_N6CameraD1Ev
_ZN6CameraD1Ev
_ZThn140_N6CameraD0Ev
_ZThn136_N6CameraD0Ev
_ZThn132_N6CameraD0Ev
_ZThn128_N6CameraD0Ev
_ZThn16_N6CameraD0Ev
_ZN6CameraD0Ev
_ZN6Camera5startEv
_ZN6Camera16setOperatingModeE23t_operating_mode_camera
_ZN6Camera13errorRecoveryEv
_ZN12CameraSensorC1EP6CameraP6CAM_SMPc
_ZN15Sensor_S5K4ECGXC1EP6CameraP6CAM_SMPc
_ZN13Sensor_ISX012C1EP6CameraP6CAM_SMPc
_ZN13Sensor_ISX01214autoFocusFlashEi
_ZN13Sensor_ISX01216autoFocusNoFlashEi
_ZN13Sensor_ISX0129autoFocusEv
_ZN15Sensor_S5K6AAFXC1EP6CameraP6CAM_SMPc
_ZN14Sensor_DB8131MC1EP6CameraP6CAM_SMPc
_ZN16Sensor_SR030PC50C1EP6CameraP6CAM_SMPc
_ZN6CameraC1ER13ENS_Component17enumExtCameraSlot
_ZN6CAM_SM13timeoutActionEv
_ZN6CAM_SM19PreparingGrabConfigEPK11s_scf_event
_ZN6CAM_SM12watchdogStopEv
_ZN6CAM_SM13watchdogStartEv
_ZN6CAM_SM20ProcessPendingEventsEPK11s_scf_event
_ZN12CGrabControl13callInterfaceEP11t_grab_desc12s_grabParams
_ZN12CGrabControl13configureHookER12s_grabParamst
_ZN12CGrabControl22setStartOneShotCaptureEt
_ZN12CGrabControl15setStartCaptureEt
_ZN12CGrabControl13setEndCaptureEt
_ZN12CGrabControl19setConfigureControlE26Iext_grabctl_api_configure
_ZN12CGrabControl16setStabConfigureE23Iext_stab_api_configure
_ZN12CGrabControl21setForceDequeueBufferEt
_ZN12CGrabControl16setEndCaptureNowEt
_ZN12CGrabControl17startBurstCaptureEtt
_ZN12CGrabControl18setFrameSkipValuesEhh
_ZN12CGrabControl12activateStabEP7ifmport
_ZN12CGrabControl14deactivateStabEv
_ZN12CGrabControl19allocateStabBuffersEP7ifmport
_ZN12CGrabControl15freeStabBuffersEv
_ZN12CGrabControl21getOverscanResolutionEii12e_grabFormatfPiS1_
_ZN5CGrab7executeE12e_grabPipeID12s_grabParamst
_ZN10COmxCamera22getResourcesEstimationEPvPN3rme6EmDataE
_ZNK10COmxCamera17getExtensionIndexEPcP13OMX_INDEXTYPE
_ZNK10COmxCamera12getParameterE13OMX_INDEXTYPEPv
_ZN10COmxCamera12setParameterE13OMX_INDEXTYPEPv
_ZNK10COmxCamera9getConfigE13OMX_INDEXTYPEPv
_ZNK10COmxCamera23isPortSpecificParameterE13OMX_INDEXTYPE
_ZN10COmxCamera16NmfPanicCallbackEPvmP18t_nmf_service_data
_ZN14COmxCamera_RDBC1Ev
_ZN10COmxCamera17createResourcesDBEv
_ZN10COmxCamera28checkIndexConfigFlashControlEPv
_ZN10COmxCamera27checkIndexConfigCaptureModeEPv
_ZN10COmxCamera32checkIndexConfigCommonColorBlendEPv
_ZN10COmxCamera30checkIndexConfigExtDigitalZoomEPv
_ZN10COmxCamera33checkIndexConfigCenterFieldOfViewEPv
_ZN10COmxCamera31checkIndexConfigCommonLightnessEPv
_ZN10COmxCamera35checkIndexConfigCommonExposureValueEPv
_ZN10COmxCamera30checkIndexConfigCommonExposureEPv
_ZN10COmxCamera32checkIndexConfigCommonSaturationEPv
_ZN10COmxCamera27checkIndexConfigCommonGammaEPv
_ZN10COmxCamera33checkIndexConfigCommonImageFilterEPv
_ZN10COmxCamera28checkIndexConfigFocusControlEPv
_ZN10COmxCamera33checkSymbianIndexConfigFocusRangeEPv
_ZN10COmxCamera34checkSymbianIndexConfigFocusRegionEPv
_ZN10COmxCamera37checkSymbianIndexConfigExtFocusStatusEPv
_ZN10COmxCamera31checkIndexConfigCallbackRequestEPv
_ZN10COmxCamera40checkIndexConfigCommonFrameStabilisationEPv
_ZN10COmxCamera27checkIndexConfigMotionLevelEPv
_ZN10COmxCamera31checkIndexConfigNDFilterControlEPv
_ZN10COmxCamera28checkIndexConfigExposureLockEPv
_ZN10COmxCamera32checkIndexConfigWhiteBalanceLockEPv
_ZN10COmxCamera25checkIndexConfigFocusLockEPv
_ZN10COmxCamera23checkIndexConfigAllLockEPv
_ZN10COmxCamera19checkIndexConfigROIEPv
_ZN10COmxCamera25checkIndexConfigRAWPresetEPv
_ZN10COmxCamera28checkIndexConfigCommonMirrorEPv
_ZN10COmxCamera9setConfigE13OMX_INDEXTYPEPv
_ZN10COmxCamera13createCamPortEm11OMX_DIRTYPE22OMX_BUFFERSUPPLIERTYPE
_ZN10COmxCamera13defaultConfigEj
_ZN10COmxCameraC1Ev
_Z34OMXExtCameraSecondaryFactoryMethodPP13ENS_Component
_Z25OMXExtCameraFactoryMethodPP13ENS_Component
_ZN6CAM_SM44EnablePortInIdleExecutingState_ConfigurePipeEPK11s_scf_event
_ZN6CAM_SM39EnablePortInIdleExecutingState_StopVpipEPK11s_scf_event
_ZN6CAM_SM40EnablePortInIdleExecutingState_SendOmxCbEPK11s_scf_event
_ZN6CAM_SM47EnablePortInIdleExecutingState_CfgGrabStartVpipEPK11s_scf_event
_ZN6CAM_SM30EnablePortInIdleExecutingStateEPK11s_scf_event
_ZN11CHostNmf_CB15emptyThisBufferEP20OMX_BUFFERHEADERTYPE
_ZNK7camport12getParameterE13OMX_INDEXTYPEPv
_ZN7camport12setParameterE13OMX_INDEXTYPEPv
_ZN7camport16getHwConstraintsEt20OMX_COLOR_FORMATTYPEPtS1_S1_
_ZN7camport25setFormatInPortDefinitionERK28OMX_PARAM_PORTDEFINITIONTYPE
_ZN7camport32setDefaultFormatInPortDefinitionEP28OMX_PARAM_PORTDEFINITIONTYPE
_ZN7camport14isSupportedFmtEt20OMX_COLOR_FORMATTYPEm
_ZN7camport9getMaxResEt
_ZN7camport27checkFormatInPortDefinitionERK28OMX_PARAM_PORTDEFINITIONTYPE
_ZN16CCapture_contextC1Ev
_Z21registerStubsAndSkelsv
_Z23unregisterStubsAndSkelsv
P2JIEX_GetDampingfromGMV
stablib_create
stablib_destroy
globalVector_generic
stablib_stabilize
stablib_report_croping_vectors
convert_error
i2c_init
i2c_deinit
i2c_read
i2c_write
i2c_read_reg8_bytes
i2c_read_reg16_bytes
i2c_write_reg8_bytes
i2c_write_reg16_bytes
i2c_write_reg16_byte
i2c_write_reg8_byte
i2c_set_timeout
_ZNK7ifmport18checkCompatibilityEPvm
_ZN7ifmport13getPixelDepthEm
_ZN7ifmport25setFormatInPortDefinitionERK28OMX_PARAM_PORTDEFINITIONTYPE
_ZN7ifmport9getStrideEmmPb
_ZN7ifmport13getBufferSizeEmlmm
_ZN9Extradata16GetExtradataSizeE11t_Componentm
_ZN9Extradata24CopyExtradata_Buffer2MemEP20OMX_BUFFERHEADERTYPEPhm
_ZN9Extradata24CopyExtradata_Mem2BufferEP20OMX_BUFFERHEADERTYPEPhm
_ZN9Extradata22GetExtradataBoundariesEP20OMX_BUFFERHEADERTYPEPP23OMX_OTHER_EXTRADATATYPES4_
_ZN9Extradata19FillExtradataHeaderEP23OMX_OTHER_EXTRADATATYPE15OMX_VERSIONTYPEm17OMX_EXTRADATATYPEm
_ZN9Extradata23FillExtradataTerminatorEP23OMX_OTHER_EXTRADATATYPE
_ZN9Extradata17ClearAllExtradataEPh
_ZN9Extradata17ClearAllExtradataEP20OMX_BUFFERHEADERTYPE
_ZN9Extradata23EnoughSpaceForExtradataEP23OMX_OTHER_EXTRADATATYPES1_m
_ZN9Extradata19NextExtradataHeaderEP23OMX_OTHER_EXTRADATATYPE
_ZN9Extradata22DoSearchExtradataFieldEP23OMX_OTHER_EXTRADATATYPES1_17OMX_EXTRADATATYPEmPS1_S3_
_ZN9Extradata20SearchExtradataFieldEP23OMX_OTHER_EXTRADATATYPES1_17OMX_EXTRADATATYPEPS1_S3_
_ZN9Extradata19DoSetExtradataFieldEP23OMX_OTHER_EXTRADATATYPES1_17OMX_EXTRADATATYPEmPvm15OMX_VERSIONTYPEm
_ZN9Extradata22SetExtradataFieldInMemE17OMX_EXTRADATATYPEmPhPvm15OMX_VERSIONTYPEm
_ZN9Extradata22SetExtradataFieldInMemE17OMX_EXTRADATATYPEPhPvm15OMX_VERSIONTYPEm
_ZN9Extradata22SetExtradataFieldInMemEPhP29OMX_STE_CAPTUREPARAMETERSTYPE15OMX_VERSIONTYPEm
_ZN9Extradata22SetExtradataFieldInMemEPhP26OMX_STE_PRODUCTIONTESTTYPE15OMX_VERSIONTYPEm
_ZN9Extradata22SetExtradataFieldInMemEPhP32OMX_SYMBIAN_DIGITALVIDEOSTABTYPE15OMX_VERSIONTYPEm
_ZN9Extradata22SetExtradataFieldInMemEPhP32OMX_SYMBIAN_FRAMEDESCRIPTIONTYPE15OMX_VERSIONTYPEm
_ZN9Extradata22SetExtradataFieldInMemEPhP33OMX_SYMBIAN_CAPTUREPARAMETERSTYPE15OMX_VERSIONTYPEm
_ZN9Extradata22SetExtradataFieldInMemEPhP16IFM_DAMPERS_DATA15OMX_VERSIONTYPEm
_ZN9Extradata22SetExtradataFieldInMemEPhP34OMX_SYMBIAN_CAMERAUSERSETTINGSTYPE15OMX_VERSIONTYPEm
_ZN9Extradata22SetExtradataFieldInMemEPhP23IFM_BMS_CAPTURE_CONTEXT15OMX_VERSIONTYPEm
_ZN9Extradata22SetExtradataFieldInMemEPhP34OMX_SYMBIAN_EXTRADATA_FEEDBACKTYPE24OMX_SYMBIAN_FEEDBACKTYPEm15OMX_VERSIONTYPEm
_ZN9Extradata17SetExtradataFieldE17OMX_EXTRADATATYPEmP20OMX_BUFFERHEADERTYPEPvm15OMX_VERSIONTYPE
_ZN9Extradata17SetExtradataFieldE17OMX_EXTRADATATYPEP20OMX_BUFFERHEADERTYPEPvm15OMX_VERSIONTYPE
_ZN9Extradata17SetExtradataFieldEP20OMX_BUFFERHEADERTYPEP29OMX_STE_CAPTUREPARAMETERSTYPE15OMX_VERSIONTYPE
_ZN9Extradata17SetExtradataFieldEP20OMX_BUFFERHEADERTYPEP26OMX_STE_PRODUCTIONTESTTYPE15OMX_VERSIONTYPE
_ZN9Extradata17SetExtradataFieldEP20OMX_BUFFERHEADERTYPEP32OMX_SYMBIAN_DIGITALVIDEOSTABTYPE15OMX_VERSIONTYPE
_ZN9Extradata17SetExtradataFieldEP20OMX_BUFFERHEADERTYPEP40OMX_SYMBIAN_EXTRADATA_EXTFOCUSSTATUSTYPEm15OMX_VERSIONTYPE
_ZN9Extradata17SetExtradataFieldEP20OMX_BUFFERHEADERTYPEP19OMX_SYMBIAN_ROITYPE15OMX_VERSIONTYPE
_ZN9Extradata17SetExtradataFieldEP20OMX_BUFFERHEADERTYPEP32OMX_SYMBIAN_FRAMEDESCRIPTIONTYPE15OMX_VERSIONTYPE
_ZN9Extradata17SetExtradataFieldEP20OMX_BUFFERHEADERTYPEP33OMX_SYMBIAN_CAPTUREPARAMETERSTYPE15OMX_VERSIONTYPE
_ZN9Extradata17SetExtradataFieldEP20OMX_BUFFERHEADERTYPEP16IFM_DAMPERS_DATA15OMX_VERSIONTYPE
_ZN9Extradata17SetExtradataFieldEP20OMX_BUFFERHEADERTYPEP34OMX_SYMBIAN_CAMERAUSERSETTINGSTYPE15OMX_VERSIONTYPE
_ZN9Extradata17SetExtradataFieldEP20OMX_BUFFERHEADERTYPEP23IFM_BMS_CAPTURE_CONTEXT15OMX_VERSIONTYPE
_ZN9Extradata17SetExtradataFieldEP20OMX_BUFFERHEADERTYPEP34OMX_SYMBIAN_EXTRADATA_FEEDBACKTYPE24OMX_SYMBIAN_FEEDBACKTYPEm15OMX_VERSIONTYPE
_ZN9Extradata19DoGetExtradataFieldEP23OMX_OTHER_EXTRADATATYPES1_17OMX_EXTRADATATYPEmPvm15OMX_VERSIONTYPE
_ZN9Extradata24GetExtradataFieldFromMemE17OMX_EXTRADATATYPEmPhPvm15OMX_VERSIONTYPE
_ZN9Extradata24GetExtradataFieldFromMemE17OMX_EXTRADATATYPEPhPvm15OMX_VERSIONTYPE
_ZN9Extradata24GetExtradataFieldFromMemEPhP29OMX_STE_CAPTUREPARAMETERSTYPE15OMX_VERSIONTYPE
_ZN9Extradata24GetExtradataFieldFromMemEPhP32OMX_SYMBIAN_FRAMEDESCRIPTIONTYPE15OMX_VERSIONTYPE
_ZN9Extradata24GetExtradataFieldFromMemEPhP33OMX_SYMBIAN_CAPTUREPARAMETERSTYPE15OMX_VERSIONTYPE
_ZN9Extradata24GetExtradataFieldFromMemEPhP32OMX_SYMBIAN_DIGITALVIDEOSTABTYPE15OMX_VERSIONTYPE
_ZN9Extradata24GetExtradataFieldFromMemEPhP16IFM_DAMPERS_DATA15OMX_VERSIONTYPE
_ZN9Extradata24GetExtradataFieldFromMemEPhP23IFM_BMS_CAPTURE_CONTEXT15OMX_VERSIONTYPE
_ZN9Extradata24GetExtradataFieldFromMemEPhP34OMX_SYMBIAN_EXTRADATA_FEEDBACKTYPE24OMX_SYMBIAN_FEEDBACKTYPEm15OMX_VERSIONTYPE
_ZN9Extradata17GetExtradataFieldE17OMX_EXTRADATATYPEmP20OMX_BUFFERHEADERTYPEPvm15OMX_VERSIONTYPE
_ZN9Extradata17GetExtradataFieldE17OMX_EXTRADATATYPEP20OMX_BUFFERHEADERTYPEPvm15OMX_VERSIONTYPE
_ZN9Extradata17GetExtradataFieldEP20OMX_BUFFERHEADERTYPEP29OMX_STE_CAPTUREPARAMETERSTYPE15OMX_VERSIONTYPE
_ZN9Extradata17GetExtradataFieldEP20OMX_BUFFERHEADERTYPEP26OMX_STE_PRODUCTIONTESTTYPE15OMX_VERSIONTYPE
_ZN9Extradata17GetExtradataFieldEP20OMX_BUFFERHEADERTYPEP40OMX_SYMBIAN_EXTRADATA_EXTFOCUSSTATUSTYPEm15OMX_VERSIONTYPE
_ZN9Extradata17GetExtradataFieldEP20OMX_BUFFERHEADERTYPEP19OMX_SYMBIAN_ROITYPE15OMX_VERSIONTYPE
_ZN9Extradata17GetExtradataFieldEP20OMX_BUFFERHEADERTYPEP32OMX_SYMBIAN_FRAMEDESCRIPTIONTYPE15OMX_VERSIONTYPE
_ZN9Extradata17GetExtradataFieldEP20OMX_BUFFERHEADERTYPEP33OMX_SYMBIAN_CAPTUREPARAMETERSTYPE15OMX_VERSIONTYPE
_ZN9Extradata17GetExtradataFieldEP20OMX_BUFFERHEADERTYPEP32OMX_SYMBIAN_DIGITALVIDEOSTABTYPE15OMX_VERSIONTYPE
_ZN9Extradata17GetExtradataFieldEP20OMX_BUFFERHEADERTYPEP16IFM_DAMPERS_DATA15OMX_VERSIONTYPE
_ZN9Extradata17GetExtradataFieldEP20OMX_BUFFERHEADERTYPEP34OMX_SYMBIAN_CAMERAUSERSETTINGSTYPE15OMX_VERSIONTYPE
_ZN9Extradata17GetExtradataFieldEP20OMX_BUFFERHEADERTYPEP23IFM_BMS_CAPTURE_CONTEXT15OMX_VERSIONTYPE
_ZN9Extradata17GetExtradataFieldEP20OMX_BUFFERHEADERTYPEP34OMX_SYMBIAN_EXTRADATA_FEEDBACKTYPE24OMX_SYMBIAN_FEEDBACKTYPEm15OMX_VERSIONTYPE
_ZN9Extradata14FormatExifDataEP33EXTRADATA_EXIFMARKERCONTAINERTYPEP17IFM_EXIF_SETTINGS15OMX_VERSIONTYPE
_ZN9Extradata14DoSetExifFieldEP23OMX_OTHER_EXTRADATATYPES1_P17IFM_EXIF_SETTINGS15OMX_VERSIONTYPEm
_ZN9Extradata17SetExifFieldInMemEPhP17IFM_EXIF_SETTINGS15OMX_VERSIONTYPEm
_ZN9Extradata22SetExtradataFieldInMemEPhP17IFM_EXIF_SETTINGS15OMX_VERSIONTYPEm
_ZN9Extradata12SetExifFieldEP20OMX_BUFFERHEADERTYPEP17IFM_EXIF_SETTINGS15OMX_VERSIONTYPE
_ZN9Extradata17SetExtradataFieldEP20OMX_BUFFERHEADERTYPEP17IFM_EXIF_SETTINGS15OMX_VERSIONTYPE
_ZN9Extradata16UnFormatExifDataEP33EXTRADATA_EXIFMARKERCONTAINERTYPEP17IFM_EXIF_SETTINGS15OMX_VERSIONTYPE
_ZN9Extradata14DoGetExifFieldEP23OMX_OTHER_EXTRADATATYPES1_P17IFM_EXIF_SETTINGS15OMX_VERSIONTYPE
_ZN9Extradata19GetExifFieldFromMemEPhP17IFM_EXIF_SETTINGS15OMX_VERSIONTYPE
_ZN9Extradata24GetExtradataFieldFromMemEPhP17IFM_EXIF_SETTINGS15OMX_VERSIONTYPE
_ZN9Extradata12GetExifFieldEP20OMX_BUFFERHEADERTYPEP17IFM_EXIF_SETTINGS15OMX_VERSIONTYPE
_ZN9Extradata17GetExtradataFieldEP20OMX_BUFFERHEADERTYPEP17IFM_EXIF_SETTINGS15OMX_VERSIONTYPE
_ZN10CExtension17getExtensionIndexEPcP13OMX_INDEXTYPE
_ZN11CApp1HeaderC1Ev
_ZN11CApp1Header9setLenghtEt
_ZN11CApp1Header4sizeEv
_ZN11CApp1Header9serializeEPh
_ZN11CTiffHeaderC1Ev
_ZN11CTiffHeader4sizeEv
_ZN11CTiffHeader12setIfdOffsetEm
_ZN11CTiffHeader9serializeEPh
_ZN4CIfdC1EP10IFDfield_ttmPhm
_ZN4CIfd16setNextIfdOffsetEt
_ZN4CIfd4sizeEv
_ZN4CIfd10sizeOfTypeE9IFDtype_e
_ZN4CIfd19getFieldDescFromTagE8IFDtag_e
_ZN4CIfd9initFieldEP10IFDfield_t8IFDtag_e
_ZN4CIfd15getFieldFromTagE8IFDtag_e
_ZN4CIfd10storeFieldEPKvmPm
_ZN4CIfd15setFieldFromTagE8IFDtag_ePKv9IFDtype_ei
_ZN4CIfd15setFieldFromTagE8IFDtag_ePK16exif_urational_t
_ZN4CIfd15setFieldFromTagE8IFDtag_ePK16exif_srational_t
_ZN4CIfd15setFieldFromTagE8IFDtag_em
_ZN4CIfd15setFieldFromTagE8IFDtag_el
_ZN4CIfd15setFieldFromTagE8IFDtag_ePKti
_ZN4CIfd15setFieldFromTagE8IFDtag_et
_ZN4CIfd15setFieldFromTagE8IFDtag_ePKhi
_ZN4CIfd15setFieldFromTagE8IFDtag_eh
_ZN4CIfd15setFieldFromTagE8IFDtag_ePKci
_ZN4CIfd23patchLargeValuesOffsetsEm
_ZN4CIfd9serializeEPhm
_ZN4CIfd11initializedEv
_ZN8CMainIfdC1Ev
_ZN11CInterOpIfdC1Ev
_ZN8CExifIfdC1Ev
_ZN13CExifMetadataC1Ev
_ZN13CExifMetadata4sizeEv
_ZN13CExifMetadata7setMakeEPKc
_ZN13CExifMetadata8setModelEPKc
_ZN13CExifMetadata14setOrientationE33OMX_SYMBIAN_ORIENTATIONORIGINTYPE
_ZN13CExifMetadata14setXResolutionEm
_ZN13CExifMetadata14setYResolutionEm
_ZN13CExifMetadata17setResolutionUnitE19IFM_RESOLUTION_UNIT
_ZN13CExifMetadata19setYCbCrPositioningE21IFM_YCbCr_POSITIONING
_ZN13CExifMetadata18setIsoSpeedRatingsEm
_ZN13CExifMetadata19setDateTimeOriginalEPK13IFM_DATE_TIME
_ZN13CExifMetadata20setDateTimeDigitizedEPK13IFM_DATE_TIME
_ZN13CExifMetadata26setComponentsConfigurationE28IFM_COMPONENTS_CONFIGURATION
_ZN13CExifMetadata18setPixelXDimensionEm
_ZN13CExifMetadata18setPixelYDimensionEm
_ZN13CExifMetadata14setFocalLengthEf
_ZN13CExifMetadata17setCustomRenderedE8OMX_BOOL
_ZN13CExifMetadata19setSceneCaptureTypeE25OMX_SYMBIAN_SCENEMODETYPE
_ZN13CExifMetadata15setMeteringModeE16OMX_METERINGTYPE
_ZN13CExifMetadata11setContrastEl
_ZN13CExifMetadata14setLightSourceE23OMX_WHITEBALCONTROLTYPE
_ZN13CExifMetadata15setWhiteBalanceE23OMX_WHITEBALCONTROLTYPE
_ZN13CExifMetadata8setFlashE8OMX_BOOL26OMX_IMAGE_FLASHCONTROLTYPES0_
_ZN13CExifMetadata19setDigitalZoomRatioEmm
_ZN13CExifMetadata15setExposureTimeEm
_ZN13CExifMetadata10setFNumberEl
_ZN13CExifMetadata20setShutterSpeedValueEm
_ZN13CExifMetadata16setApertureValueEm
_ZN13CExifMetadata18setBrightnessValueEm
_ZN13CExifMetadata18setSubjectDistanceEm
_ZN13CExifMetadata16setExposureIndexEl
_ZN13CExifMetadata15setExposureModeE23OMX_EXPOSURECONTROLTYPE8OMX_BOOL
_ZN13CExifMetadata14setGainControlEll
_ZN13CExifMetadata11setDateTimeEPK13IFM_DATE_TIME
_ZN13CExifMetadata11setSoftwareEPKc
_ZN13CExifMetadata15setExposureBiasEl
_ZN13CExifMetadata29setInteroperabilityIFDPointerEm
_ZN13CExifMetadata24setInterOperabilityIndexEPKc
_ZN13CExifMetadata26setInterOperabilityVersionEv
_ZN13CExifMetadata23setSubjectDistanceRangeEm
_ZN13CExifMetadata14setSubjectAreaE20OMX_SYMBIAN_RECTTYPE
_ZN13CExifMetadata12setMakerNoteEPKvi
_ZN13CExifMetadata13setColorSpaceE15IFM_COLOR_SPACE
_ZN13CExifMetadata10initializeEPK17IFM_EXIF_SETTINGS
_ZN13CExifMetadata9serializeEPK17IFM_EXIF_SETTINGSPhm
_ZN13CExifMetadata11deserializeEP17IFM_EXIF_SETTINGSPKhm
_ZNK25IFM_HostNmfProcessingComp12getNmfSuffixEv
_ZN25IFM_HostNmfProcessingComp11instantiateEv
_ZN25IFM_HostNmfProcessingComp13deInstantiateEv
_ZN25IFM_HostNmfProcessingComp9configureEv
_ZN25IFM_HostNmfProcessingComp5startEv
_ZN25IFM_HostNmfProcessingComp4stopEv
_ZN25IFM_HostNmfProcessingComp7destroyEv
_ZN25IFM_HostNmfProcessingComp9constructEv
_ZN25IFM_HostNmfProcessingComp9useBufferEmmP20OMX_BUFFERHEADERTYPEPPv
_ZN25IFM_HostNmfProcessingComp15useBufferHeaderE11OMX_DIRTYPEP20OMX_BUFFERHEADERTYPE
_ZN25IFM_HostNmfProcessingComp10freeBufferEmm8OMX_BOOLPvS1_
_ZN25IFM_HostNmfProcessingComp13getPixelDepthEm
_ZN25IFM_HostNmfProcessingComp14allocateBufferEmmmPPhPPvS3_
_ZNK21IFM_NmfProcessingComp12getNmfSuffixEv
_ZN21IFM_NmfProcessingComp11instantiateEv
_ZN21IFM_NmfProcessingComp13deInstantiateEv
_ZN21IFM_NmfProcessingComp9configureEv
_ZN21IFM_NmfProcessingComp5startEv
_ZN21IFM_NmfProcessingComp4stopEv
_ZN21IFM_NmfProcessingComp7destroyEv
_ZN21IFM_NmfProcessingComp9constructEv
_ZN21IFM_NmfProcessingComp24getBufferPhysicalAddressEPvPhm
_ZN21IFM_NmfProcessingComp20doBufferDeAllocationEmmPv
_ZN21IFM_NmfProcessingComp13getPixelDepthEm
_ZN21IFM_NmfProcessingComp18doBufferAllocationEmmmPPhPPv
_ZN7CSensor13getBayerWidthEv
_ZN7CSensor14getBayerHeightEv
_ZN7CSensor23getNberOfNonActiveLinesEv
_ZN7CSensor14getResolutionsEP19t_sensorResolutions
_ZN7CSensorD1Ev
_ZN7CSensorD0Ev
_ZN7CSensorC1E14enumCameraSlot
_ZN7CSensor21GetSensorPreBootTableEPm
_ZN7CSensor22GetSensorPostBootTableEPm
_ZN7CSensor18GetSensorPeByIndexEt
_ZN7CSensor19GetSensorPatchTableEPm
_ZN7CSensor17GetSensorSpecificEPm
_ZN7CSensor16SetFocalLengthMmEf
_ZN7CSensor16GetFocalLengthMmEv
_ZN7CSensor19SetSensorDescriptorEP17t_sensorDesciptor
_ZN7CSensor14GetSensorModelEv
_ZN7CSensor21GetSensorManufacturerEv
_ZN7CSensor18GetSensorRevNumberEv
_ZN7CSensor10GetFuseId1Ev
_ZN7CSensor10GetFuseId2Ev
_ZN7CSensor10GetFuseId3Ev
_ZN7CSensor10GetFuseId4Ev
_ZN7CSensor13setBayerWidthEm
_ZN7CSensor14setBayerHeightEm
_ZN7CSensor23setNberOfNonActiveLinesEh
_ZN7CSensor21setSensorModesPointerEPh
_ZN7CSensor21getSensorModesPointerEv
_ZN7CSensor18setSensorModesNberEt
_ZN7CSensor18getSensorModesNberEv
_ZN7CSensor17GetLensParametersEP16t_LensParameters
_ZN7CSensor28filterResolutionsAspectRatioEP19t_sensorResolutionsi
_Z19imgtest_drawRel2Absll
_Z17imgtest_drawPixelPhllll22e_imgTestC_colorFormatm
_Z16imgtest_drawLinePhlll22e_imgTestC_colorFormatP18imgTest_drawObject
_Z12imgTest_drawPhlll22e_imgTestC_colorFormatP18imgTest_drawObjecti
_ZN11VariationIfD1Ev
_ZN11VariationIf17listOfResolutionsEP17t_sensorDesciptorP19t_sensorResolutionsPi
_ZN11VariationIfD0Ev
_ZN11VariationIfC1Ev
_ZN19CSensorConfigurable17GetLensParametersEP16t_LensParameters
_ZN19CSensorConfigurableD1Ev
_ZN19CSensorConfigurableD0Ev
_ZN19CSensorConfigurableC1E14enumCameraSlot
_ZN19CSensorConfigurable15loadResolutionsEv
_ZN19CSensorConfigurable14getBayerHeightEv
_ZN19CSensorConfigurable13getBayerWidthEv
_ZN19CSensorConfigurable14getResolutionsEP19t_sensorResolutions
_Z16GetExifTagSizeofi
_Z20GetExifTagDecriptiont12enumExifType
_Z20GetExifTagDecriptionPKc12enumExifType
_ZNK7ExifTag9GetOffsetEv
_ZNK7ExifTag9GetOffsetERj
_ZNK7ExifTag11GetDataSizeEv
_ZNK7ExifTag14GetDataAddressEPKcR16ExifPtrDataValueRj
_ZNK7ExifTag11DisplayItemEPKc
_ZN15ExifIfd_ManagerC1EPcS0_
_ZN15ExifIfd_Manager11SetBaseAddrEPcS0_
_ZNK15ExifIfd_Manager8GetNbTagEv
_ZNK15ExifIfd_Manager14GetStartOffsetEv
_ZNK15ExifIfd_Manager5GetAtEt
_ZNK15ExifIfd_Manager7FindTagEt
_ZNK15ExifIfd_Manager10GetNextIfdEv
_ZNK15ExifIfd_Manager6GetEndEv
_ZN10ExifReaderC1Ev
_ZNK10ExifReader14IsLittleEndianEv
_ZN10ExifReader12AttachBufferEPcj
_ZNK10ExifReader7GetIfd0Ev
_ZNK10ExifReader11GetExifBaseEv
_ZN10ExifReader16ComputeMaxOffsetEv
_ZNK10ExifReader10GetNbOfIfdEv
_ZNK10ExifReader6GetIfdEj
_ZNK10ExifReader23GetIfd_InteroperabilityEv
_ZNK10ExifReader10GetIfd_GpsEv
_ZNK10ExifReader11GetIfd_ExifEv
_ZNK10ExifReader7DumpIFDER15ExifIfd_ManagerPKc
_ZN10ExifReader7DumpAllEv
_ZNK10ExifReader7FindTagEtPPc
_ZN10ExifReader9ModifyTagEtttPKcPP7ExifTag
_ZNK10ExifReader7FindTagEPKcPPc
_ZN11MMIO_Camera10initDriverEv
_ZN11MMIO_Camera13releaseDriverEv
_ZN11MMIO_Camera9initBoardENS_16T_CameraFunctionE
_ZN11MMIO_Camera12desinitBoardEv
_ZN11MMIO_Camera14initMMDSPTimerEv
_ZN11MMIO_Camera11powerSensorE8OMX_BOOL
_ZN11MMIO_Camera9setExtClkE8OMX_BOOL
_ZN11MMIO_Camera27setPrimaryCameraHWInterfaceEv
_ZN11MMIO_Camera31releasePrimaryCameraHWInterfaceEv
_ZN11MMIO_Camera29setSecondaryCameraHWInterfaceEv
_ZN11MMIO_Camera33releaseSecondaryCameraHWInterfaceEv
_ZN11MMIO_Camera20mapStatisticsMemAreaEm
_ZN11MMIO_Camera10loadXP70FWEPKvm
_ZN11MMIO_Camera10loadXP70FWEPKvmS1_mS1_mS1_m
_ZN11MMIO_Camera10loadXP70FWEPKvmS1_mS1_m
_ZN11MMIO_Camera14ispVectorWriteEmPKli
_Z13activate_i2c2i
_Z26enable_xshutdown_from_hostii
_ZN11MMIO_Camera17getCameraFunctionENS_16T_CameraFunctionEPj
_ZN11MMIO_Camera14setTraceBufferEmm
_ZN11MMIO_Camera16isNVMdataPresentEv
_ZN11MMIO_Camera11readNVMdataEPv
_ZN11MMIO_Camera12writeNVMdataEPvm
_Z16cameraFlashOnOffi
_Z18cameraFlashSetModei
_Z14cameraBoardRevv
_Z10frontCamIdv
_Z15rearCamVendorIdi
_Z20cameraGpioPinControlii
_Z21cameraPowerPinControlii
_Z18cameraClockControlii
_ZN19ext_img_networkImpl13bindComponentEPKcPN3NMF9CompositeES1_
_ZN19ext_img_networkImpl13readAttributeEPKcPm
_ZN19ext_img_networkImpl11getPropertyEPKcPcm
_ZN19ext_img_networkImpl21getComponentInterfaceEPKcPc
_ZN19ext_img_networkImpl23dumpInstantiationJumperEPv
_ZN19ext_img_networkImpl15dumpDestructionEv
_ZN19ext_img_networkImpl17dumpInstantiationEv
_ZN19ext_img_networkImpl9bindToMPCEPKcmS1_j
_ZN19ext_img_networkImpl11bindFromMPCEmPKcS1_j
_ZN19ext_img_networkImpl12bindFromUserEPKcjPN3NMF18InterfaceReferenceEj
_ZN19ext_img_networkImpl12unbindToUserEmPKcPPv
_ZN19ext_img_networkImpl10bindToUserEmPKcPvj
_ZN19ext_img_networkImpl10stop_flushEv
_ZN19ext_img_networkImpl9constructEv
_ZN19ext_img_networkImpl21getMPCComponentHandleEPKc
_ZN19ext_img_networkImpl13unbindFromMPCEmPKcS1_
_ZN19ext_img_networkImpl14unbindFromUserEPKc
_ZN19ext_img_networkImpl7destroyEv
_ZN19ext_img_networkImpl4stopEv
_ZN19ext_img_networkImpl5startEv
_ZN19ext_img_networkImpl12getInterfaceEPKcPN3NMF18InterfaceReferenceE
_ZN19ext_img_networkImpl11unbindToMPCEPKcmS1_
_ZN19ext_img_networkImpl15unbindComponentEPKcPN3NMF9CompositeES1_
_ZN19ext_img_networkImpl18unbindAsynchronousEPKcPN3NMF9CompositeES1_
_ZN19ext_img_networkImpl16bindAsynchronousEPKcjPN3NMF9CompositeES1_j
_Z22ext_img_networkDestroyRP15ext_img_network
_ZN19ext_img_networkImplD1Ev
_ZN19ext_img_networkImplD0Ev
_ZN19ext_img_networkImplC1Ev
_Z21ext_img_networkCreatev
_ZThn84_N17ext_imgcontroller7fsmInitE16t_xyuv_fsmInit_t
_ZThn64_N17ext_imgcontroller7fsmInitE16t_xyuv_fsmInit_t
_ZN17ext_imgcontroller7fsmInitE16t_xyuv_fsmInit_t
_ZThn84_N17ext_imgcontroller15setTunnelStatusEst
_ZThn64_N17ext_imgcontroller15setTunnelStatusEst
_ZN17ext_imgcontroller15setTunnelStatusEst
_ZN17ext_imgcontroller18forwardPortCommandE22t_xyuv_OMX_COMMANDTYPEj
_ZN17ext_imgcontroller16forwardPortEventE22t_xyuv_OMX_COMMANDTYPEj
_ZThn64_N17ext_imgcontroller20grabctl_eventHandlerE20t_xyuv_OMX_EVENTTYPEmm
_ZN17ext_imgcontroller20grabctl_eventHandlerE20t_xyuv_OMX_EVENTTYPEmm
_ZThn64_N17ext_imgcontroller17stab_eventHandlerE20t_xyuv_OMX_EVENTTYPEmm
_ZN17ext_imgcontroller17stab_eventHandlerE20t_xyuv_OMX_EVENTTYPEmm
_ZThn84_N8ext_stab12reportCurvesEmmm
_ZThn52_N8ext_stab12reportCurvesEmmm
_ZN8ext_stab12reportCurvesEmmm
_ZThn88_N8ext_stab12activateStabEh
_ZThn52_N8ext_stab12activateStabEh
_ZN8ext_stab12activateStabEh
_ZN8ext_stab5resetEv
_ZN8ext_stab21disablePortIndicationEm
_ZN8ext_stab20enablePortIndicationEm
_ZN8ext_stab19flushPortIndicationEm
_ZThn88_N8ext_stab9setConfigE15e_grabctlPortIDh
_ZThn52_N8ext_stab9setConfigE15e_grabctlPortIDh
_ZN8ext_stab9setConfigE15e_grabctlPortIDh
_ZThn88_N8ext_stab9setParamsE12s_grabParamsm
_ZThn52_N8ext_stab9setParamsE12s_grabParamsm
_ZN8ext_stab9setParamsE12s_grabParamsm
_ZThn52_N8ext_stab14fillThisBufferEP20OMX_BUFFERHEADERTYPEh
_ZN8ext_stab14fillThisBufferEP20OMX_BUFFERHEADERTYPEh
_ZThn52_N8ext_stab15emptyThisBufferEP20OMX_BUFFERHEADERTYPEh
_ZN8ext_stab15emptyThisBufferEP20OMX_BUFFERHEADERTYPEh
_ZThn76_N8ext_stab11sendCommandE22t_xyuv_OMX_COMMANDTYPEj
_ZThn52_N8ext_stab11sendCommandE22t_xyuv_OMX_COMMANDTYPEj
_ZN8ext_stab11sendCommandE22t_xyuv_OMX_COMMANDTYPEj
_ZThn72_N8ext_stab7fsmInitE16t_xyuv_fsmInit_t
_ZThn52_N8ext_stab7fsmInitE16t_xyuv_fsmInit_t
_ZN8ext_stab7fsmInitE16t_xyuv_fsmInit_t
_ZThn88_N8ext_stab13informBuffersEmPlmS0_mm
_ZThn52_N8ext_stab13informBuffersEmPlmS0_mm
_ZN8ext_stab13informBuffersEmPlmS0_mm
_ZN8ext_stab16calcFilledLengthE12e_grabFormattt
_ZThn72_N8ext_stab15setTunnelStatusEst
_ZThn52_N8ext_stab15setTunnelStatusEst
_ZN8ext_stab15setTunnelStatusEst
_ZN8ext_stabC1Ev
_ZN8ext_stab13extraDataInitEP23OMX_OTHER_EXTRADATATYPE
_ZN8ext_stab12addExtraDataEP20OMX_BUFFERHEADERTYPEss
_ZN8ext_stab9stabilizeEP20OMX_BUFFERHEADERTYPE
_ZN8ext_stab7processEv
_ZThn20_N22nmf_host_shared_bufout14fillThisBufferEP20OMX_BUFFERHEADERTYPE
_ZN22nmf_host_shared_bufout14fillThisBufferEP20OMX_BUFFERHEADERTYPE
_ZThn24_N22nmf_host_shared_bufout15emptyThisBufferEm
_ZN22nmf_host_shared_bufout15emptyThisBufferEm
_ZThn20_N16_evl_sendcommand11sendCommandE22t_xyuv_OMX_COMMANDTYPEj
_ZN16_evl_sendcommand11sendCommandE22t_xyuv_OMX_COMMANDTYPEj
_ZN16_evl_sendcommand11destroyFifoEv
_ZN16_evl_sendcommand10createFifoEhss
_ZThn20_N12_evl_fsminit7fsmInitE16t_xyuv_fsmInit_t
_ZN12_evl_fsminit7fsmInitE16t_xyuv_fsmInit_t
_ZThn20_N12_evl_fsminit15setTunnelStatusEst
_ZN12_evl_fsminit15setTunnelStatusEst
_ZN12_evl_fsminit11destroyFifoEv
_ZN12_evl_fsminit10createFifoEhss
_ZThn20_N17_evl_eventhandler12eventHandlerE20t_xyuv_OMX_EVENTTYPEmm
_ZN17_evl_eventhandler12eventHandlerE20t_xyuv_OMX_EVENTTYPEmm
_ZN17_evl_eventhandler11destroyFifoEv
_ZN17_evl_eventhandler10createFifoEhss
_ZThn20_N27_evl_shared_emptythisbuffer15emptyThisBufferEm
_ZN27_evl_shared_emptythisbuffer15emptyThisBufferEm
_ZN27_evl_shared_emptythisbuffer11destroyFifoEv
_ZN27_evl_shared_emptythisbuffer10createFifoEhss
_ZThn20_N33_evl_ext_grabctl_api_reportcurves12reportCurvesEmmm
_ZN33_evl_ext_grabctl_api_reportcurves12reportCurvesEmmm
_ZN33_evl_ext_grabctl_api_reportcurves11destroyFifoEv
_ZN33_evl_ext_grabctl_api_reportcurves10createFifoEhss
_ZThn20_N14_evl_postevent12processEventEv
_ZN14_evl_postevent12processEventEv
_ZN14_evl_postevent11destroyFifoEv
_ZN14_evl_postevent10createFifoEhss
_ZThn20_N26_evl_armnmf_fillthisbuffer14fillThisBufferEP20OMX_BUFFERHEADERTYPE
_ZN26_evl_armnmf_fillthisbuffer14fillThisBufferEP20OMX_BUFFERHEADERTYPE
_ZN26_evl_armnmf_fillthisbuffer11destroyFifoEv
_ZN26_evl_armnmf_fillthisbuffer10createFifoEhss
_ZThn20_N27_evl_ext_stab_api_configure9setParamsE12s_grabParamsm
_ZN27_evl_ext_stab_api_configure9setParamsE12s_grabParamsm
_ZThn20_N27_evl_ext_stab_api_configure9setConfigE15e_grabctlPortIDh
_ZN27_evl_ext_stab_api_configure9setConfigE15e_grabctlPortIDh
_ZThn20_N27_evl_ext_stab_api_configure12activateStabEh
_ZN27_evl_ext_stab_api_configure12activateStabEh
_ZThn20_N27_evl_ext_stab_api_configure13informBuffersEmPlmS0_mm
_ZN27_evl_ext_stab_api_configure13informBuffersEmPlmS0_mm
_ZN27_evl_ext_stab_api_configure11destroyFifoEv
_ZN27_evl_ext_stab_api_configure10createFifoEhss
_ZThn20_N30_evl_ext_grabctl_api_configure9setParamsE12s_grabParams15e_grabctlPortIDt
_ZN30_evl_ext_grabctl_api_configure9setParamsE12s_grabParams15e_grabctlPortIDt
_ZThn20_N30_evl_ext_grabctl_api_configure15setClockRunningEv
_ZN30_evl_ext_grabctl_api_configure15setClockRunningEv
_ZThn20_N30_evl_ext_grabctl_api_configure23setClockWaitingForStartEv
_ZN30_evl_ext_grabctl_api_configure23setClockWaitingForStartEv
_ZThn20_N30_evl_ext_grabctl_api_configure19setPort2PipeMappingE12e_grabPipeIDS0_S0_
_ZN30_evl_ext_grabctl_api_configure19setPort2PipeMappingE12e_grabPipeIDS0_S0_
_ZThn20_N30_evl_ext_grabctl_api_configure11setClientIDEh
_ZN30_evl_ext_grabctl_api_configure11setClientIDEh
_ZThn20_N30_evl_ext_grabctl_api_configure9setConfigE15e_grabctlPortID15e_grabctlCfgIdxh
_ZN30_evl_ext_grabctl_api_configure9setConfigE15e_grabctlPortID15e_grabctlCfgIdxh
_ZN30_evl_ext_grabctl_api_configure11destroyFifoEv
_ZN30_evl_ext_grabctl_api_configure10createFifoEhss
_ZThn20_N21_evl_ext_grab_api_cmd7executeE12e_grabPipeID12s_grabParamst
_ZN21_evl_ext_grab_api_cmd7executeE12e_grabPipeID12s_grabParamst
_ZThn20_N21_evl_ext_grab_api_cmd14set_frame_skipEt
_ZN21_evl_ext_grab_api_cmd14set_frame_skipEt
_ZThn20_N21_evl_ext_grab_api_cmd17unsubscribeEventsEttmt
_ZN21_evl_ext_grab_api_cmd17unsubscribeEventsEttmt
_ZThn20_N21_evl_ext_grab_api_cmd15subscribeEventsEttmt
_ZN21_evl_ext_grab_api_cmd15subscribeEventsEttmt
_ZThn20_N21_evl_ext_grab_api_cmd5abortE12e_grabPipeIDt
_ZN21_evl_ext_grab_api_cmd5abortE12e_grabPipeIDt
_ZN21_evl_ext_grab_api_cmd11destroyFifoEv
_ZN21_evl_ext_grab_api_cmd10createFifoEhss
_ZThn20_N17_cbl_eventhandler12eventHandlerE20t_xyuv_OMX_EVENTTYPEmm
_ZN17_cbl_eventhandler12eventHandlerE20t_xyuv_OMX_EVENTTYPEmm
_ZN17_cbl_eventhandler11destroyFifoEPPv
_ZN17_cbl_eventhandler10createFifoEmhPv
_ZThn20_N33_cbl_ext_grabctl_api_acknowledges12clockrunningEt
_ZN33_cbl_ext_grabctl_api_acknowledges12clockrunningEt
_ZThn20_N33_cbl_ext_grabctl_api_acknowledges20clockwaitingforstartEt
_ZN33_cbl_ext_grabctl_api_acknowledges20clockwaitingforstartEt
_ZThn20_N33_cbl_ext_grabctl_api_acknowledges10configuredEt
_ZN33_cbl_ext_grabctl_api_acknowledges10configuredEt
_ZN33_cbl_ext_grabctl_api_acknowledges11destroyFifoEPPv
_ZN33_cbl_ext_grabctl_api_acknowledges10createFifoEmhPv
_ZThn20_N26_cbl_ext_grabctl_api_error5errorE11e_grabErrort12e_grabPipeID
_ZN26_cbl_ext_grabctl_api_error5errorE11e_grabErrort12e_grabPipeID
_ZN26_cbl_ext_grabctl_api_error11destroyFifoEPPv
_ZN26_cbl_ext_grabctl_api_error10createFifoEmhPv
_ZThn20_N27_cbl_armnmf_emptythisbuffer15emptyThisBufferEP20OMX_BUFFERHEADERTYPE
_ZN27_cbl_armnmf_emptythisbuffer15emptyThisBufferEP20OMX_BUFFERHEADERTYPE
_ZN27_cbl_armnmf_emptythisbuffer11destroyFifoEPPv
_ZN27_cbl_armnmf_emptythisbuffer10createFifoEmhPv
_ZThn20_N23_cbl_ext_grab_api_alert5debugE11e_grabDebugtttm
_ZN23_cbl_ext_grab_api_alert5debugE11e_grabDebugtttm
_ZThn20_N23_cbl_ext_grab_api_alert5errorE11e_grabErrorttm
_ZN23_cbl_ext_grab_api_alert5errorE11e_grabErrorttm
_ZThn20_N23_cbl_ext_grab_api_alert4infoE10e_grabInfotm
_ZN23_cbl_ext_grab_api_alert4infoE10e_grabInfotm
_ZN23_cbl_ext_grab_api_alert11destroyFifoEPPv
_ZN23_cbl_ext_grab_api_alert10createFifoEmhPv
