_ZN7android8OmxUtilsD1Ev
_ZN7android8OmxUtils4nameE13OMX_ERRORTYPE
_ZN7android8OmxUtils10initializeER28OMX_PARAM_PORTDEFINITIONTYPE18OMX_PORTDOMAINTYPEm
_ZN7android8OmxUtils4initEv
_ZN7android8OmxUtilsC1Ev


#if 0
.globl shim__ZN7android22omxJpegEncEventHandlerEPvS0_13OMX_EVENTTYPEmmS0_
shim__ZN7android22omxJpegEncEventHandlerEPvS0_13OMX_EVENTTYPEmmS0_:
bl _ZN7android22omxJpegEncEventHandlerEPvS0_13OMX_EVENTTYPEmmS0_

.globl shim__ZN7android25omxJpegEncEmptyBufferDoneEPvS0_P20OMX_BUFFERHEADERTYPE
shim__ZN7android25omxJpegEncEmptyBufferDoneEPvS0_P20OMX_BUFFERHEADERTYPE:
bl _ZN7android25omxJpegEncEmptyBufferDoneEPvS0_P20OMX_BUFFERHEADERTYPE

.globl shim__ZN7android24omxJpegEncFillBufferDoneEPvS0_P20OMX_BUFFERHEADERTYPE
shim__ZN7android24omxJpegEncFillBufferDoneEPvS0_P20OMX_BUFFERHEADERTYPE:
bl _ZN7android24omxJpegEncFillBufferDoneEPvS0_P20OMX_BUFFERHEADERTYPE
#endif

.globl shim__Z15camera_sem_waitP5sem_ti
shim__Z15camera_sem_waitP5sem_ti:
bl _Z15camera_sem_waitP5sem_ti

.globl shim__ZN7android10SteJpegEncD1Ev
shim__ZN7android10SteJpegEncD1Ev:
bl _ZN7android10SteJpegEncD1Ev

.globl shim__ZN7android10SteJpegEnc6encodeEPcRS1_Ri
shim__ZN7android10SteJpegEnc6encodeEPcRS1_Ri:
bl _ZN7android10SteJpegEnc6encodeEPcRS1_Ri

.globl shim__ZN7android10SteJpegEncC1Eiiii20OMX_IMAGE_CODINGTYPE20OMX_COLOR_FORMATTYPE
shim__ZN7android10SteJpegEncC1Eiiii20OMX_IMAGE_CODINGTYPE20OMX_COLOR_FORMATTYPE:
bl _ZN7android10SteJpegEncC1Eiiii20OMX_IMAGE_CODINGTYPE20OMX_COLOR_FORMATTYPE

.globl shim__ZN7android24omxArmIvProcEventHandlerEPvS0_13OMX_EVENTTYPEmmS0_
shim__ZN7android24omxArmIvProcEventHandlerEPvS0_13OMX_EVENTTYPEmmS0_:
bl _ZN7android24omxArmIvProcEventHandlerEPvS0_13OMX_EVENTTYPEmmS0_

.globl shim__ZN7android27omxArmIvProcEmptyBufferDoneEPvS0_P20OMX_BUFFERHEADERTYPE
shim__ZN7android27omxArmIvProcEmptyBufferDoneEPvS0_P20OMX_BUFFERHEADERTYPE:
bl _ZN7android27omxArmIvProcEmptyBufferDoneEPvS0_P20OMX_BUFFERHEADERTYPE

.globl shim__ZN7android26omxArmIvProcFillBufferDoneEPvS0_P20OMX_BUFFERHEADERTYPE
shim__ZN7android26omxArmIvProcFillBufferDoneEPvS0_P20OMX_BUFFERHEADERTYPE:
bl _ZN7android26omxArmIvProcFillBufferDoneEPvS0_P20OMX_BUFFERHEADERTYPE

.globl shim__ZN7android12SteArmIvProcC1Eii20OMX_COLOR_FORMATTYPEiiS1_
shim__ZN7android12SteArmIvProcC1Eii20OMX_COLOR_FORMATTYPEiiS1_:
bl _ZN7android12SteArmIvProcC1Eii20OMX_COLOR_FORMATTYPEiiS1_

.globl shim__ZN7android12SteArmIvProcD1Ev
shim__ZN7android12SteArmIvProcD1Ev:
bl _ZN7android12SteArmIvProcD1Ev

.globl shim__ZN7android12SteArmIvProc9transformEPcRS1_
shim__ZN7android12SteArmIvProc9transformEPcRS1_:
bl _ZN7android12SteArmIvProc9transformEPcRS1_

.globl shim__ZN7android15STEExtIspCamera16SetPropSharpnessEv
shim__ZN7android15STEExtIspCamera16SetPropSharpnessEv:
bl _ZN7android15STEExtIspCamera16SetPropSharpnessEv

.globl shim__ZN7android11BnInterfaceINS_11IMemoryHeapEE10onAsBinderEv
shim__ZN7android11BnInterfaceINS_11IMemoryHeapEE10onAsBinderEv:
bl _ZN7android11BnInterfaceINS_11IMemoryHeapEE10onAsBinderEv

.globl shim__ZNK7android12SortedVectorINS_16key_value_pair_tINS_7String8ES2_EEE10do_compareEPKvS6_
shim__ZNK7android12SortedVectorINS_16key_value_pair_tINS_7String8ES2_EEE10do_compareEPKvS6_:
bl _ZNK7android12SortedVectorINS_16key_value_pair_tINS_7String8ES2_EEE10do_compareEPKvS6_

.globl shim__ZNK7android12SortedVectorINS_16key_value_pair_tINS_7String8ES2_EEE15do_move_forwardEPvPKvj
shim__ZNK7android12SortedVectorINS_16key_value_pair_tINS_7String8ES2_EEE15do_move_forwardEPvPKvj:
bl _ZNK7android12SortedVectorINS_16key_value_pair_tINS_7String8ES2_EEE15do_move_forwardEPvPKvj

.globl shim__ZNK7android12SortedVectorINS_16key_value_pair_tINS_7String8ES2_EEE8do_splatEPvPKvj
shim__ZNK7android12SortedVectorINS_16key_value_pair_tINS_7String8ES2_EEE8do_splatEPvPKvj:
bl _ZNK7android12SortedVectorINS_16key_value_pair_tINS_7String8ES2_EEE8do_splatEPvPKvj

.globl shim__ZNK7android12SortedVectorINS_16key_value_pair_tINS_7String8ES2_EEE7do_copyEPvPKvj
shim__ZNK7android12SortedVectorINS_16key_value_pair_tINS_7String8ES2_EEE7do_copyEPvPKvj:
bl _ZNK7android12SortedVectorINS_16key_value_pair_tINS_7String8ES2_EEE7do_copyEPvPKvj

.globl shim__ZNK7android12SortedVectorINS_16key_value_pair_tINS_7String8ES2_EEE10do_destroyEPvj
shim__ZNK7android12SortedVectorINS_16key_value_pair_tINS_7String8ES2_EEE10do_destroyEPvj:
bl _ZNK7android12SortedVectorINS_16key_value_pair_tINS_7String8ES2_EEE10do_destroyEPvj

.globl shim__ZNK7android12SortedVectorINS_16key_value_pair_tINS_7String8ES2_EEE12do_constructEPvj
shim__ZNK7android12SortedVectorINS_16key_value_pair_tINS_7String8ES2_EEE12do_constructEPvj:
bl _ZNK7android12SortedVectorINS_16key_value_pair_tINS_7String8ES2_EEE12do_constructEPvj

.globl shim__ZN7android22IspprocEmptyBufferDoneEPvS0_P20OMX_BUFFERHEADERTYPE
shim__ZN7android22IspprocEmptyBufferDoneEPvS0_P20OMX_BUFFERHEADERTYPE:
bl _ZN7android22IspprocEmptyBufferDoneEPvS0_P20OMX_BUFFERHEADERTYPE

.globl shim__ZN7android18SwProcessingThreadINS_22SwProcessingThreadDataEE13handleRequestERS1_
shim__ZN7android18SwProcessingThreadINS_22SwProcessingThreadDataEE13handleRequestERS1_:
bl _ZN7android18SwProcessingThreadINS_22SwProcessingThreadDataEE13handleRequestERS1_

.globl shim__ZN7android9STECamera24doPreviewSwConProcessingEPK20OMX_BUFFERHEADERTYPEii
shim__ZN7android9STECamera24doPreviewSwConProcessingEPK20OMX_BUFFERHEADERTYPEii:
bl _ZN7android9STECamera24doPreviewSwConProcessingEPK20OMX_BUFFERHEADERTYPEii

.globl shim__ZN7android18ExifFillBufferDoneEPvS0_P20OMX_BUFFERHEADERTYPE
shim__ZN7android18ExifFillBufferDoneEPvS0_P20OMX_BUFFERHEADERTYPE:
bl _ZN7android18ExifFillBufferDoneEPvS0_P20OMX_BUFFERHEADERTYPE

.globl shim__ZN7android19JpegEmptyBufferDoneEPvS0_P20OMX_BUFFERHEADERTYPE
shim__ZN7android19JpegEmptyBufferDoneEPvS0_P20OMX_BUFFERHEADERTYPE:
bl _ZN7android19JpegEmptyBufferDoneEPvS0_P20OMX_BUFFERHEADERTYPE

.globl shim__ZN7android21IspprocFillBufferDoneEPvS0_P20OMX_BUFFERHEADERTYPE
shim__ZN7android21IspprocFillBufferDoneEPvS0_P20OMX_BUFFERHEADERTYPE:
bl _ZN7android21IspprocFillBufferDoneEPvS0_P20OMX_BUFFERHEADERTYPE

.globl shim__ZN7android9STECamera13putParametersEPc
shim__ZN7android9STECamera13putParametersEPc:
bl _ZN7android9STECamera13putParametersEPc

.globl shim__ZN7android9STECamera7releaseEv
shim__ZN7android9STECamera7releaseEv:
bl _ZN7android9STECamera7releaseEv

.globl shim__ZNK7android9STECamera4dumpEi
shim__ZNK7android9STECamera4dumpEi:
bl _ZNK7android9STECamera4dumpEi

.globl shim__Z17getROICoordinatesPPcPic
shim__Z17getROICoordinatesPPcPic:
bl _Z17getROICoordinatesPPcPic

.globl shim__ZN7android9STECamera13cancelPictureEv
shim__ZN7android9STECamera13cancelPictureEv:
bl _ZN7android9STECamera13cancelPictureEv

.globl shim__ZN7android9STECamera12setCallbacksEPFviiiPvEPFviPK13camera_memoryjP21camera_frame_metadataS1_EPFvxiS6_jS1_EPFPS4_ijjS1_ES1_
shim__ZN7android9STECamera12setCallbacksEPFviiiPvEPFviPK13camera_memoryjP21camera_frame_metadataS1_EPFvxiS6_jS1_EPFPS4_ijjS1_ES1_:
bl _ZN7android9STECamera12setCallbacksEPFviiiPvEPFviPK13camera_memoryjP21camera_frame_metadataS1_EPFvxiS6_jS1_EPFPS4_ijjS1_ES1_

.globl shim__ZN7android9STECamera13getParametersEv
shim__ZN7android9STECamera13getParametersEv:
bl _ZN7android9STECamera13getParametersEv

.globl shim__Z22getKeyStrFromOmxPixFmtPc20OMX_COLOR_FORMATTYPE
shim__Z22getKeyStrFromOmxPixFmtPc20OMX_COLOR_FORMATTYPE:
bl _Z22getKeyStrFromOmxPixFmtPc20OMX_COLOR_FORMATTYPE

.globl shim__ZN7android9STECamera17setLensParametersEPv
shim__ZN7android9STECamera17setLensParametersEPv:
bl _ZN7android9STECamera17setLensParametersEPv

.globl shim__ZN7android16ExifEventHandlerEPvS0_13OMX_EVENTTYPEmmS0_
shim__ZN7android16ExifEventHandlerEPvS0_13OMX_EVENTTYPEmmS0_:
bl _ZN7android16ExifEventHandlerEPvS0_13OMX_EVENTTYPEmmS0_

.globl shim__ZN7android16JpegEventHandlerEPvS0_13OMX_EVENTTYPEmmS0_
shim__ZN7android16JpegEventHandlerEPvS0_13OMX_EVENTTYPEmmS0_:
bl _ZN7android16JpegEventHandlerEPvS0_13OMX_EVENTTYPEmmS0_

.globl shim__ZN7android19IspprocEventHandlerEPvS0_13OMX_EVENTTYPEmmS0_
shim__ZN7android19IspprocEventHandlerEPvS0_13OMX_EVENTTYPEmmS0_:
bl _ZN7android19IspprocEventHandlerEPvS0_13OMX_EVENTTYPEmmS0_

.globl shim__ZN7android18JpegFillBufferDoneEPvS0_P20OMX_BUFFERHEADERTYPE
shim__ZN7android18JpegFillBufferDoneEPvS0_P20OMX_BUFFERHEADERTYPE:
bl _ZN7android18JpegFillBufferDoneEPvS0_P20OMX_BUFFERHEADERTYPE

.globl shim__ZN7android9STECamera21releaseRecordingFrameEPKv
shim__ZN7android9STECamera21releaseRecordingFrameEPKv:
bl _ZN7android9STECamera21releaseRecordingFrameEPKv

.globl shim__ZN7android9STECamera22checkForShakeDetectionEPv
shim__ZN7android9STECamera22checkForShakeDetectionEPv:
bl _ZN7android9STECamera22checkForShakeDetectionEPv

.globl shim__ZN7android9STECamera9autoFocusEv
shim__ZN7android9STECamera9autoFocusEv:
bl _ZN7android9STECamera9autoFocusEv

.globl shim__ZN7android9OmxThreadINS_11OmxBuffInfoEE11handleFlushERS1_
shim__ZN7android9OmxThreadINS_11OmxBuffInfoEE11handleFlushERS1_:
bl _ZN7android9OmxThreadINS_11OmxBuffInfoEE11handleFlushERS1_

.globl shim__ZN7android9OmxThreadINS_11OmxBuffInfoEE13handleRequestERS1_
shim__ZN7android9OmxThreadINS_11OmxBuffInfoEE13handleRequestERS1_:
bl _ZN7android9OmxThreadINS_11OmxBuffInfoEE13handleRequestERS1_

.globl shim__ZN7android9STECameraC1Ei
shim__ZN7android9STECameraC1Ei:
bl _ZN7android9STECameraC1Ei

.globl shim__ZN7android9STECamera16initFocusHandlerEv
shim__ZN7android9STECamera16initFocusHandlerEv:
bl _ZN7android9STECamera16initFocusHandlerEv

.globl shim__ZN7android9STECamera19initImageRotHandlerEv
shim__ZN7android9STECamera19initImageRotHandlerEv:
bl _ZN7android9STECamera19initImageRotHandlerEv

.globl shim__ZN7android9STECamera18setupReqCbHandlersEv
shim__ZN7android9STECamera18setupReqCbHandlersEv:
bl _ZN7android9STECamera18setupReqCbHandlersEv

.globl shim__ZN7android9STECamera17destroySemaphoresEv
shim__ZN7android9STECamera17destroySemaphoresEv:
bl _ZN7android9STECamera17destroySemaphoresEv

.globl shim__ZN7android9STECamera13freeVFBuffersEv
shim__ZN7android9STECamera13freeVFBuffersEv:
bl _ZN7android9STECamera13freeVFBuffersEv

.globl shim__ZN7android9STECamera16freeVideoBuffersEv
shim__ZN7android9STECamera16freeVideoBuffersEv:
bl _ZN7android9STECamera16freeVideoBuffersEv

.globl shim__ZN7android9STECamera16freeStillBuffersEv
shim__ZN7android9STECamera16freeStillBuffersEv:
bl _ZN7android9STECamera16freeStillBuffersEv

.globl shim__ZN7android9STECamera30sendVideoComponentsToIdleStateEv
shim__ZN7android9STECamera30sendVideoComponentsToIdleStateEv:
bl _ZN7android9STECamera30sendVideoComponentsToIdleStateEv

.globl shim__ZN7android9STECamera30sendStillComponentsToIdleStateEv
shim__ZN7android9STECamera30sendStillComponentsToIdleStateEv:
bl _ZN7android9STECamera30sendStillComponentsToIdleStateEv

.globl shim__ZN7android9STECamera32sendVideoComponentsToLoadedStateEv
shim__ZN7android9STECamera32sendVideoComponentsToLoadedStateEv:
bl _ZN7android9STECamera32sendVideoComponentsToLoadedStateEv

.globl shim__ZN7android9STECamera32sendStillComponentsToLoadedStateEv
shim__ZN7android9STECamera32sendStillComponentsToLoadedStateEv:
bl _ZN7android9STECamera32sendStillComponentsToLoadedStateEv

.globl shim__ZN7android9STECamera20freeComponentHandlesEv
shim__ZN7android9STECamera20freeComponentHandlesEv:
bl _ZN7android9STECamera20freeComponentHandlesEv

.globl shim__ZN7android9STECamera16initStillRawHeapEv
shim__ZN7android9STECamera16initStillRawHeapEv:
bl _ZN7android9STECamera16initStillRawHeapEv

.globl shim__ZN7android9STECamera16initStillZSLHeapEv
shim__ZN7android9STECamera16initStillZSLHeapEv:
bl _ZN7android9STECamera16initStillZSLHeapEv

.globl shim__ZN7android9STECamera13initStillHeapEv
shim__ZN7android9STECamera13initStillHeapEv:
bl _ZN7android9STECamera13initStillHeapEv

.globl shim__ZN7android9STECamera27sendCancelReqToNativeWindowEi
shim__ZN7android9STECamera27sendCancelReqToNativeWindowEi:
bl _ZN7android9STECamera27sendCancelReqToNativeWindowEi

.globl shim__ZN7android9STECamera22cancelAllNativeBuffersEv
shim__ZN7android9STECamera22cancelAllNativeBuffersEv:
bl _ZN7android9STECamera22cancelAllNativeBuffersEv

.globl shim__ZN7android9STECamera22getLockForNativeBufferEi
shim__ZN7android9STECamera22getLockForNativeBufferEi:
bl _ZN7android9STECamera22getLockForNativeBufferEi

.globl shim__ZN7android9STECamera19findNativeBuffIndexEPPK13native_handle
shim__ZN7android9STECamera19findNativeBuffIndexEPPK13native_handle:
bl _ZN7android9STECamera19findNativeBuffIndexEPPK13native_handle

.globl shim__ZN7android9STECamera19dequeueNativeBufferEv
shim__ZN7android9STECamera19dequeueNativeBufferEv:
bl _ZN7android9STECamera19dequeueNativeBufferEv

.globl shim__ZN7android9STECamera18renderNativeBufferEi
shim__ZN7android9STECamera18renderNativeBufferEi:
bl _ZN7android9STECamera18renderNativeBufferEi

.globl shim__ZN7android9STECamera15doRawProcessingEPv
shim__ZN7android9STECamera15doRawProcessingEPv:
bl _ZN7android9STECamera15doRawProcessingEPv

.globl shim__ZN7android9STECamera20getCropVectorForZoomERiS1_RjS2_b
shim__ZN7android9STECamera20getCropVectorForZoomERiS1_RjS2_b:
bl _ZN7android9STECamera20getCropVectorForZoomERiS1_RjS2_b

.globl shim__ZN7android9STECamera18doRecordProcessingERNS_11OmxBuffInfoE
shim__ZN7android9STECamera18doRecordProcessingERNS_11OmxBuffInfoE:
bl _ZN7android9STECamera18doRecordProcessingERNS_11OmxBuffInfoE

.globl shim__ZN7android12RecordThreadINS_11OmxBuffInfoEE12handleBufferERS1_R8OMX_BOOL
shim__ZN7android12RecordThreadINS_11OmxBuffInfoEE12handleBufferERS1_R8OMX_BOOL:
bl _ZN7android12RecordThreadINS_11OmxBuffInfoEE12handleBufferERS1_R8OMX_BOOL

.globl shim__ZN7android9STECamera17disableVideoPortsEv
shim__ZN7android9STECamera17disableVideoPortsEv:
bl _ZN7android9STECamera17disableVideoPortsEv

.globl shim__ZN7android9STECamera18disableAllCamPortsEv
shim__ZN7android9STECamera18disableAllCamPortsEv:
bl _ZN7android9STECamera18disableAllCamPortsEv

.globl shim__ZN7android9STECamera17disableStillPortsEv
shim__ZN7android9STECamera17disableStillPortsEv:
bl _ZN7android9STECamera17disableStillPortsEv

.globl shim__ZN7android9STECamera20clearStillModeConfigEv
shim__ZN7android9STECamera20clearStillModeConfigEv:
bl _ZN7android9STECamera20clearStillModeConfigEv

.globl shim__ZN7android9STECamera20clearVideoModeConfigEv
shim__ZN7android9STECamera20clearVideoModeConfigEv:
bl _ZN7android9STECamera20clearVideoModeConfigEv

.globl shim__ZN7android9STECamera17preOmxCompCleanUpEv
shim__ZN7android9STECamera17preOmxCompCleanUpEv:
bl _ZN7android9STECamera17preOmxCompCleanUpEv

.globl shim__ZN7android9STECamera20supplyPreviewBuffersEv
shim__ZN7android9STECamera20supplyPreviewBuffersEv:
bl _ZN7android9STECamera20supplyPreviewBuffersEv

.globl shim__ZN7android9STECamera19supplyRecordBuffersEv
shim__ZN7android9STECamera19supplyRecordBuffersEv:
bl _ZN7android9STECamera19supplyRecordBuffersEv

.globl shim__ZN7android9STECamera19checkPreviewEnabledEv
shim__ZN7android9STECamera19checkPreviewEnabledEv:
bl _ZN7android9STECamera19checkPreviewEnabledEv

.globl shim__ZN7android9STECamera14previewEnabledEv
shim__ZN7android9STECamera14previewEnabledEv:
bl _ZN7android9STECamera14previewEnabledEv

.globl shim__ZN7android9STECamera21checkRecordingEnabledEv
shim__ZN7android9STECamera21checkRecordingEnabledEv:
bl _ZN7android9STECamera21checkRecordingEnabledEv

.globl shim__ZN7android9STECamera16recordingEnabledEv
shim__ZN7android9STECamera16recordingEnabledEv:
bl _ZN7android9STECamera16recordingEnabledEv

.globl shim__ZN7android9STECamera20isFrameRateSupportedEPKci
shim__ZN7android9STECamera20isFrameRateSupportedEPKci:
bl _ZN7android9STECamera20isFrameRateSupportedEPKci

.globl shim__ZN7android9STECamera15updateFrameRateERiS1_S1_i
shim__ZN7android9STECamera15updateFrameRateERiS1_S1_i:
bl _ZN7android9STECamera15updateFrameRateERiS1_S1_i

.globl shim__ZN7android9STECamera13updateHiResVFERiS1_i
shim__ZN7android9STECamera13updateHiResVFERiS1_i:
bl _ZN7android9STECamera13updateHiResVFERiS1_i

.globl shim__ZN7android9STECamera17updatePreviewSizeERiS1_
shim__ZN7android9STECamera17updatePreviewSizeERiS1_:
bl _ZN7android9STECamera17updatePreviewSizeERiS1_

.globl shim__ZN7android9STECamera16updateRecordSizeERiS1_
shim__ZN7android9STECamera16updateRecordSizeERiS1_:
bl _ZN7android9STECamera16updateRecordSizeERiS1_

.globl shim__ZN7android9STECamera17updatePictureSizeERiS1_
shim__ZN7android9STECamera17updatePictureSizeERiS1_:
bl _ZN7android9STECamera17updatePictureSizeERiS1_

.globl shim__ZN7android9STECamera19updateThumbnailSizeERiS1_
shim__ZN7android9STECamera19updateThumbnailSizeERiS1_:
bl _ZN7android9STECamera19updateThumbnailSizeERiS1_

.globl shim__ZN7android9STECamera20updatePictureQualityERi
shim__ZN7android9STECamera20updatePictureQualityERi:
bl _ZN7android9STECamera20updatePictureQualityERi

.globl shim__ZN7android9STECamera22updateThumbnailQualityERi
shim__ZN7android9STECamera22updateThumbnailQualityERi:
bl _ZN7android9STECamera22updateThumbnailQualityERi

.globl shim__ZNK7android9STECamera13getParametersEv
shim__ZNK7android9STECamera13getParametersEv:
bl _ZNK7android9STECamera13getParametersEv

.globl shim__ZN7android9STECamera7msgNameEi
shim__ZN7android9STECamera7msgNameEi:
bl _ZN7android9STECamera7msgNameEi

.globl shim__ZN7android9STECamera14msgTypeEnabledEi
shim__ZN7android9STECamera14msgTypeEnabledEi:
bl _ZN7android9STECamera14msgTypeEnabledEi

.globl shim__ZN7android9STECamera14disableMsgTypeEi
shim__ZN7android9STECamera14disableMsgTypeEi:
bl _ZN7android9STECamera14disableMsgTypeEi

.globl shim__ZN7android9STECamera13enableMsgTypeEi
shim__ZN7android9STECamera13enableMsgTypeEi:
bl _ZN7android9STECamera13enableMsgTypeEi

.globl shim__ZN7android9STECamera18extractSubUnitTimeERy
shim__ZN7android9STECamera18extractSubUnitTimeERy:
bl _ZN7android9STECamera18extractSubUnitTimeERy

.globl shim__ZN7android9STECamera16convertUTCToTimeERyS1_S1_PKc
shim__ZN7android9STECamera16convertUTCToTimeERyS1_S1_PKc:
bl _ZN7android9STECamera16convertUTCToTimeERyS1_S1_PKc

.globl shim__ZN7android9STECamera22extractSubUnitLocationERf
shim__ZN7android9STECamera22extractSubUnitLocationERf:
bl _ZN7android9STECamera22extractSubUnitLocationERf

.globl shim__ZN7android9STECamera16convertToDegreesERyS1_S1_PKc
shim__ZN7android9STECamera16convertToDegreesERyS1_S1_PKc:
bl _ZN7android9STECamera16convertToDegreesERyS1_S1_PKc

.globl shim__ZN7android9STECamera16setFocusDistanceEv
shim__ZN7android9STECamera16setFocusDistanceEv:
bl _ZN7android9STECamera16setFocusDistanceEv

.globl shim__ZN7android9STECamera21doAutoFocusProcessingERNS_19AutoFocusThreadDataE
shim__ZN7android9STECamera21doAutoFocusProcessingERNS_19AutoFocusThreadDataE:
bl _ZN7android9STECamera21doAutoFocusProcessingERNS_19AutoFocusThreadDataE

.globl shim__ZN7android15AutoFocusThreadINS_19AutoFocusThreadDataEE13handleRequestERS1_
shim__ZN7android15AutoFocusThreadINS_19AutoFocusThreadDataEE13handleRequestERS1_:
bl _ZN7android15AutoFocusThreadINS_19AutoFocusThreadDataEE13handleRequestERS1_

.globl shim__ZN7android9STECamera10setGPSTagsERKNS_16CameraParametersEPvi
shim__ZN7android9STECamera10setGPSTagsERKNS_16CameraParametersEPvi:
bl _ZN7android9STECamera10setGPSTagsERKNS_16CameraParametersEPvi

.globl shim__ZN7android9STECamera11takePictureEv
shim__ZN7android9STECamera11takePictureEv:
bl _ZN7android9STECamera11takePictureEv

.globl shim__ZN7android9STECamera15setMakeAndModelEv
shim__ZN7android9STECamera15setMakeAndModelEv:
bl _ZN7android9STECamera15setMakeAndModelEv

.globl shim__ZN7android9STECamera28configVideoRevertAspectRatioEPv8OMX_BOOL
shim__ZN7android9STECamera28configVideoRevertAspectRatioEPv8OMX_BOOL:
bl _ZN7android9STECamera28configVideoRevertAspectRatioEPv8OMX_BOOL

.globl shim__ZN7android9STECamera18setPropVideoRotateEPvi
shim__ZN7android9STECamera18setPropVideoRotateEPvi:
bl _ZN7android9STECamera18setPropVideoRotateEPvi

.globl shim__ZN7android9STECamera15SetPropContrastERKNS_16CameraParametersEPv
shim__ZN7android9STECamera15SetPropContrastERKNS_16CameraParametersEPv:
bl _ZN7android9STECamera15SetPropContrastERKNS_16CameraParametersEPv

.globl shim__ZN7android9STECamera17SetPropBrightnessERKNS_16CameraParametersEPv
shim__ZN7android9STECamera17SetPropBrightnessERKNS_16CameraParametersEPv:
bl _ZN7android9STECamera17SetPropBrightnessERKNS_16CameraParametersEPv

.globl shim__ZN7android9STECamera17SetPropSaturationERKNS_16CameraParametersEPv
shim__ZN7android9STECamera17SetPropSaturationERKNS_16CameraParametersEPv:
bl _ZN7android9STECamera17SetPropSaturationERKNS_16CameraParametersEPv

.globl shim__ZN7android9STECamera16SetPropSharpnessERKNS_16CameraParametersEPv
shim__ZN7android9STECamera16SetPropSharpnessERKNS_16CameraParametersEPv:
bl _ZN7android9STECamera16SetPropSharpnessERKNS_16CameraParametersEPv

.globl shim__ZN7android9STECamera20SetPropRegionControlERKNS_16CameraParametersEPv
shim__ZN7android9STECamera20SetPropRegionControlERKNS_16CameraParametersEPv:
bl _ZN7android9STECamera20SetPropRegionControlERKNS_16CameraParametersEPv

.globl shim__ZN7android9STECamera19SetPropMeteringAreaERKNS_16CameraParametersEPv
shim__ZN7android9STECamera19SetPropMeteringAreaERKNS_16CameraParametersEPv:
bl _ZN7android9STECamera19SetPropMeteringAreaERKNS_16CameraParametersEPv

.globl shim__ZN7android9STECamera16SetPropFocusAreaERKNS_16CameraParametersEPv
shim__ZN7android9STECamera16SetPropFocusAreaERKNS_16CameraParametersEPv:
bl _ZN7android9STECamera16SetPropFocusAreaERKNS_16CameraParametersEPv

.globl shim__ZN7android9STECamera14SetPropAWBLockERKNS_16CameraParametersEPv
shim__ZN7android9STECamera14SetPropAWBLockERKNS_16CameraParametersEPv:
bl _ZN7android9STECamera14SetPropAWBLockERKNS_16CameraParametersEPv

.globl shim__ZN7android9STECamera13SetPropAELockERKNS_16CameraParametersEPv
shim__ZN7android9STECamera13SetPropAELockERKNS_16CameraParametersEPv:
bl _ZN7android9STECamera13SetPropAELockERKNS_16CameraParametersEPv

.globl shim__ZN7android9STECamera6doZoomEj
shim__ZN7android9STECamera6doZoomEj:
bl _ZN7android9STECamera6doZoomEj

.globl shim__ZN7android9STECamera11SetPropZoomERKNS_16CameraParametersEPv
shim__ZN7android9STECamera11SetPropZoomERKNS_16CameraParametersEPv:
bl _ZN7android9STECamera11SetPropZoomERKNS_16CameraParametersEPv

.globl shim__ZN7android9STECamera15startSmoothZoomEi
shim__ZN7android9STECamera15startSmoothZoomEi:
bl _ZN7android9STECamera15startSmoothZoomEi

.globl shim__ZN7android9STECamera19SetPropWhiteBalanceERKNS_16CameraParametersEPv
shim__ZN7android9STECamera19SetPropWhiteBalanceERKNS_16CameraParametersEPv:
bl _ZN7android9STECamera19SetPropWhiteBalanceERKNS_16CameraParametersEPv

.globl shim__ZN7android9STECamera12SetPropFocusERKNS_16CameraParametersEPvb
shim__ZN7android9STECamera12SetPropFocusERKNS_16CameraParametersEPvb:
bl _ZN7android9STECamera12SetPropFocusERKNS_16CameraParametersEPvb

.globl shim__ZN7android9STECamera12SetPropFlashERKNS_16CameraParametersEPv
shim__ZN7android9STECamera12SetPropFlashERKNS_16CameraParametersEPv:
bl _ZN7android9STECamera12SetPropFlashERKNS_16CameraParametersEPv

.globl shim__ZN7android9STECamera21SetPropFlickerRemovalERKNS_16CameraParametersEPv
shim__ZN7android9STECamera21SetPropFlickerRemovalERKNS_16CameraParametersEPv:
bl _ZN7android9STECamera21SetPropFlickerRemovalERKNS_16CameraParametersEPv

.globl shim__ZN7android9STECamera12getSceneModeERKNS_16CameraParametersE
shim__ZN7android9STECamera12getSceneModeERKNS_16CameraParametersE:
bl _ZN7android9STECamera12getSceneModeERKNS_16CameraParametersE

.globl shim__ZN7android9STECamera23SetExposureCompensationERKNS_16CameraParametersEPv
shim__ZN7android9STECamera23SetExposureCompensationERKNS_16CameraParametersEPv:
bl _ZN7android9STECamera23SetExposureCompensationERKNS_16CameraParametersEPv

.globl shim__ZN7android9STECamera25initPreviewOmxColorFormatEPKc
shim__ZN7android9STECamera25initPreviewOmxColorFormatEPKc:
bl _ZN7android9STECamera25initPreviewOmxColorFormatEPKc

.globl shim__ZN7android9STECamera18checkPreviewFormatEPKc
shim__ZN7android9STECamera18checkPreviewFormatEPKc:
bl _ZN7android9STECamera18checkPreviewFormatEPKc

.globl shim__ZN7android9STECamera19Append_WhiteBalanceERNS_7String8ES2_
shim__ZN7android9STECamera19Append_WhiteBalanceERNS_7String8ES2_:
bl _ZN7android9STECamera19Append_WhiteBalanceERNS_7String8ES2_

.globl shim__ZN7android9STECamera16Append_SceneModeERNS_7String8ES2_
shim__ZN7android9STECamera16Append_SceneModeERNS_7String8ES2_:
bl _ZN7android9STECamera16Append_SceneModeERNS_7String8ES2_

.globl shim__ZN7android9STECamera16Append_FlashModeERNS_7String8ES2_
shim__ZN7android9STECamera16Append_FlashModeERNS_7String8ES2_:
bl _ZN7android9STECamera16Append_FlashModeERNS_7String8ES2_

.globl shim__ZN7android9STECamera16Append_FocusModeERNS_7String8ES2_
shim__ZN7android9STECamera16Append_FocusModeERNS_7String8ES2_:
bl _ZN7android9STECamera16Append_FocusModeERNS_7String8ES2_

.globl shim__ZN7android9STECamera25Append_FlickerRemovalModeERNS_7String8ES2_
shim__ZN7android9STECamera25Append_FlickerRemovalModeERNS_7String8ES2_:
bl _ZN7android9STECamera25Append_FlickerRemovalModeERNS_7String8ES2_

.globl shim__ZN7android9STECamera21Append_PreviewFormatsERNS_7String8E
shim__ZN7android9STECamera21Append_PreviewFormatsERNS_7String8E:
bl _ZN7android9STECamera21Append_PreviewFormatsERNS_7String8E

.globl shim__ZN7android9STECamera18Append_ColorEffectERNS_7String8ES2_
shim__ZN7android9STECamera18Append_ColorEffectERNS_7String8ES2_:
bl _ZN7android9STECamera18Append_ColorEffectERNS_7String8ES2_

.globl shim__ZN7android9STECamera19Append_MeteringModeERNS_7String8ES2_
shim__ZN7android9STECamera19Append_MeteringModeERNS_7String8ES2_:
bl _ZN7android9STECamera19Append_MeteringModeERNS_7String8ES2_

.globl shim__ZN7android9STECamera20Append_RegionControlERNS_7String8ES2_
shim__ZN7android9STECamera20Append_RegionControlERNS_7String8ES2_:
bl _ZN7android9STECamera20Append_RegionControlERNS_7String8ES2_

.globl shim__ZN7android9STECamera10Append_ValERKNS_7String8ES3_
shim__ZN7android9STECamera10Append_ValERKNS_7String8ES3_:
bl _ZN7android9STECamera10Append_ValERKNS_7String8ES3_

.globl shim__ZN7android9STECamera15resetPropertiesEv
shim__ZN7android9STECamera15resetPropertiesEv:
bl _ZN7android9STECamera15resetPropertiesEv

.globl shim__ZN7android9STECamera27setupPreviewSwConProcessingEPKc
shim__ZN7android9STECamera27setupPreviewSwConProcessingEPKc:
bl _ZN7android9STECamera27setupPreviewSwConProcessingEPKc

.globl shim__ZN7android9STECamera27setupPreviewSwRotProcessingEi
shim__ZN7android9STECamera27setupPreviewSwRotProcessingEi:
bl _ZN7android9STECamera27setupPreviewSwRotProcessingEi

.globl shim__ZN7android9STECamera25setupVideoSwRotProcessingEi
shim__ZN7android9STECamera25setupVideoSwRotProcessingEi:
bl _ZN7android9STECamera25setupVideoSwRotProcessingEi

.globl shim__ZN7android9STECamera24doPreviewSwRotProcessingEPK20OMX_BUFFERHEADERTYPEii
shim__ZN7android9STECamera24doPreviewSwRotProcessingEPK20OMX_BUFFERHEADERTYPEii:
bl _ZN7android9STECamera24doPreviewSwRotProcessingEPK20OMX_BUFFERHEADERTYPEii

.globl shim__ZN7android9STECamera24doPictureSwRotProcessingEPK20OMX_BUFFERHEADERTYPEP10MMHwBuffer
shim__ZN7android9STECamera24doPictureSwRotProcessingEPK20OMX_BUFFERHEADERTYPEP10MMHwBuffer:
bl _ZN7android9STECamera24doPictureSwRotProcessingEPK20OMX_BUFFERHEADERTYPEP10MMHwBuffer

.globl shim__ZN7android9STECamera15setupXP70TracesEv
shim__ZN7android9STECamera15setupXP70TracesEv:
bl _ZN7android9STECamera15setupXP70TracesEv

.globl shim__ZN7android9STECamera20doCallbackProcessingERNS_20ReqHandlerThreadDataE
shim__ZN7android9STECamera20doCallbackProcessingERNS_20ReqHandlerThreadDataE:
bl _ZN7android9STECamera20doCallbackProcessingERNS_20ReqHandlerThreadDataE

.globl shim__ZN7android16ReqHandlerThreadINS_20ReqHandlerThreadDataEE13handleRequestERS1_
shim__ZN7android16ReqHandlerThreadINS_20ReqHandlerThreadDataEE13handleRequestERS1_:
bl _ZN7android16ReqHandlerThreadINS_20ReqHandlerThreadDataEE13handleRequestERS1_

.globl shim__ZN7android9STECamera21getDumpReplayColorFmtE20OMX_COLOR_FORMATTYPE
shim__ZN7android9STECamera21getDumpReplayColorFmtE20OMX_COLOR_FORMATTYPE:
bl _ZN7android9STECamera21getDumpReplayColorFmtE20OMX_COLOR_FORMATTYPE

.globl shim__ZN7android9STECamera18setPreviewFpsRangeEii
shim__ZN7android9STECamera18setPreviewFpsRangeEii:
bl _ZN7android9STECamera18setPreviewFpsRangeEii

.globl shim__ZN7android9STECamera15findFreeReqSlotEv
shim__ZN7android9STECamera15findFreeReqSlotEv:
bl _ZN7android9STECamera15findFreeReqSlotEv

.globl shim__ZN7android9STECamera24configureAndStartHiResVFEv
shim__ZN7android9STECamera24configureAndStartHiResVFEv:
bl _ZN7android9STECamera24configureAndStartHiResVFEv

.globl shim__ZN7android9STECamera14setupExtraKeysEv
shim__ZN7android9STECamera14setupExtraKeysEv:
bl _ZN7android9STECamera14setupExtraKeysEv

.globl shim__ZN7android9STECamera30initSecondaryDefaultParametersEv
shim__ZN7android9STECamera30initSecondaryDefaultParametersEv:
bl _ZN7android9STECamera30initSecondaryDefaultParametersEv

.globl shim__ZN7android9STECamera28initPrimaryDefaultParametersEv
shim__ZN7android9STECamera28initPrimaryDefaultParametersEv:
bl _ZN7android9STECamera28initPrimaryDefaultParametersEv

.globl shim__ZN7android9STECamera28postOMXConfigStartViewfinderEb
shim__ZN7android9STECamera28postOMXConfigStartViewfinderEb:
bl _ZN7android9STECamera28postOMXConfigStartViewfinderEb

.globl shim__ZN7android9STECamera29postOMXConfigStartVideoRecordEv
shim__ZN7android9STECamera29postOMXConfigStartVideoRecordEv:
bl _ZN7android9STECamera29postOMXConfigStartVideoRecordEv

.globl shim__ZN7android9STECamera14startRecordingEv
shim__ZN7android9STECamera14startRecordingEv:
bl _ZN7android9STECamera14startRecordingEv

.globl shim__ZN7android9STECamera21initProcessingBuffersEv
shim__ZN7android9STECamera21initProcessingBuffersEv:
bl _ZN7android9STECamera21initProcessingBuffersEv

.globl shim__ZN7android9STECamera18setConfigVideoStabE8OMX_BOOL
shim__ZN7android9STECamera18setConfigVideoStabE8OMX_BOOL:
bl _ZN7android9STECamera18setConfigVideoStabE8OMX_BOOL

.globl shim__ZN7android9STECamera13getCropVectorEPhRjS2_S2_S2_
shim__ZN7android9STECamera13getCropVectorEPhRjS2_S2_S2_:
bl _ZN7android9STECamera13getCropVectorEPhRjS2_S2_S2_

.globl shim__ZN7android9STECamera14InitializePortER28OMX_PARAM_PORTDEFINITIONTYPE18OMX_PORTDOMAINTYPEPvib
shim__ZN7android9STECamera14InitializePortER28OMX_PARAM_PORTDEFINITIONTYPE18OMX_PORTDOMAINTYPEPvib:
bl _ZN7android9STECamera14InitializePortER28OMX_PARAM_PORTDEFINITIONTYPE18OMX_PORTDOMAINTYPEPvib

.globl shim__ZN7android9STECamera22ReconfigureJpegQualityERKNS_9ImageInfoE
shim__ZN7android9STECamera22ReconfigureJpegQualityERKNS_9ImageInfoE:
bl _ZN7android9STECamera22ReconfigureJpegQualityERKNS_9ImageInfoE

.globl shim__ZN7android9STECamera16ReconfigureStillERKNS_9ImageInfoEb
shim__ZN7android9STECamera16ReconfigureStillERKNS_9ImageInfoEb:
bl _ZN7android9STECamera16ReconfigureStillERKNS_9ImageInfoEb

.globl shim__ZN7android9STECamera19SceneModeControllerC1EPS0_
shim__ZN7android9STECamera19SceneModeControllerC1EPS0_:
bl _ZN7android9STECamera19SceneModeControllerC1EPS0_

.globl shim__ZN7android9STECamera19SceneModeControllerD1Ev
shim__ZN7android9STECamera19SceneModeControllerD1Ev:
bl _ZN7android9STECamera19SceneModeControllerD1Ev

.globl shim__ZN7android9STECamera19SceneModeController10initializeEv
shim__ZN7android9STECamera19SceneModeController10initializeEv:
bl _ZN7android9STECamera19SceneModeController10initializeEv

.globl shim__ZN7android9STECamera19SceneModeController12setSceneModeENS1_4ModeE
shim__ZN7android9STECamera19SceneModeController12setSceneModeENS1_4ModeE:
bl _ZN7android9STECamera19SceneModeController12setSceneModeENS1_4ModeE

.globl shim__ZN7android9STECamera17SetPropSceneModesERKNS_16CameraParametersEPv
shim__ZN7android9STECamera17SetPropSceneModesERKNS_16CameraParametersEPv:
bl _ZN7android9STECamera17SetPropSceneModesERKNS_16CameraParametersEPv

.globl shim__ZN7android9STECamera19SceneModeController8setGammaENS1_4ModeE
shim__ZN7android9STECamera19SceneModeController8setGammaENS1_4ModeE:
bl _ZN7android9STECamera19SceneModeController8setGammaENS1_4ModeE

.globl shim__ZN7android9STECamera18SetPropColorEffectERKNS_16CameraParametersEPv
shim__ZN7android9STECamera18SetPropColorEffectERKNS_16CameraParametersEPv:
bl _ZN7android9STECamera18SetPropColorEffectERKNS_16CameraParametersEPv

.globl shim__ZN7android9STECamera21applyCameraPropertiesERKNS_16CameraParametersE
shim__ZN7android9STECamera21applyCameraPropertiesERKNS_16CameraParametersE:
bl _ZN7android9STECamera21applyCameraPropertiesERKNS_16CameraParametersE

.globl shim__ZN7android9STECamera20initThumbnailHandlerEv
shim__ZN7android9STECamera20initThumbnailHandlerEv:
bl _ZN7android9STECamera20initThumbnailHandlerEv

.globl shim__ZN7android9STECamera16doStartRecordingEPv
shim__ZN7android9STECamera16doStartRecordingEPv:
bl _ZN7android9STECamera16doStartRecordingEPv

.globl shim__ZN7android2spINS_10MemoryBaseEED1Ev
shim__ZN7android2spINS_10MemoryBaseEED1Ev:
bl _ZN7android2spINS_10MemoryBaseEED1Ev

.globl shim__ZN7android9STECamera23setupRawSwConProcessingEPKcii
shim__ZN7android9STECamera23setupRawSwConProcessingEPKcii:
bl _ZN7android9STECamera23setupRawSwConProcessingEPKcii

.globl shim__ZN7android9STECamera16initSnapshotHeapEv
shim__ZN7android9STECamera16initSnapshotHeapEv:
bl _ZN7android9STECamera16initSnapshotHeapEv

.globl shim__ZN7android2spINS_14MemoryHeapBaseEED1Ev
shim__ZN7android2spINS_14MemoryHeapBaseEED1Ev:
bl _ZN7android2spINS_14MemoryHeapBaseEED1Ev

.globl shim__ZN7android9STECamera25enableNativeBuffOnOMXCompEPvi
shim__ZN7android9STECamera25enableNativeBuffOnOMXCompEPvi:
bl _ZN7android9STECamera25enableNativeBuffOnOMXCompEPvi

.globl shim__ZN7android9STECamera16initGlobalParamsEv
shim__ZN7android9STECamera16initGlobalParamsEv:
bl _ZN7android9STECamera16initGlobalParamsEv

.globl shim__ZN7android9STECamera29getNativeBuffFromNativeWindowEv
shim__ZN7android9STECamera29getNativeBuffFromNativeWindowEv:
bl _ZN7android9STECamera29getNativeBuffFromNativeWindowEv

.globl shim__ZN7android9STECamera15dispatchRequestEMS0_F13OMX_ERRORTYPEPvES2_b
shim__ZN7android9STECamera15dispatchRequestEMS0_F13OMX_ERRORTYPEPvES2_b:
bl _ZN7android9STECamera15dispatchRequestEMS0_F13OMX_ERRORTYPEPvES2_b

.globl shim__ZN7android20CameraFillBufferDoneEPvS0_P20OMX_BUFFERHEADERTYPE
shim__ZN7android20CameraFillBufferDoneEPvS0_P20OMX_BUFFERHEADERTYPE:
bl _ZN7android20CameraFillBufferDoneEPvS0_P20OMX_BUFFERHEADERTYPE

.globl shim__ZN7android9STECamera20dispatchNotificationEiii
shim__ZN7android9STECamera20dispatchNotificationEiii:
bl _ZN7android9STECamera20dispatchNotificationEiii

.globl shim__ZN7android9STECamera18smoothZoomCompleteEv
shim__ZN7android9STECamera18smoothZoomCompleteEv:
bl _ZN7android9STECamera18smoothZoomCompleteEv

.globl shim__ZN7android9STECamera14stopSmoothZoomEv
shim__ZN7android9STECamera14stopSmoothZoomEv:
bl _ZN7android9STECamera14stopSmoothZoomEv

.globl shim__ZN7android9STECamera11sendCommandEiii
shim__ZN7android9STECamera11sendCommandEiii:
bl _ZN7android9STECamera11sendCommandEiii

.globl shim__ZN7android9STECamera13pictureThreadEv
shim__ZN7android9STECamera13pictureThreadEv:
bl _ZN7android9STECamera13pictureThreadEv

.globl shim__ZN7android9STECamera18beginPictureThreadEPv
shim__ZN7android9STECamera18beginPictureThreadEPv:
bl _ZN7android9STECamera18beginPictureThreadEPv

.globl shim__ZN7android9STECamera15cancelAutoFocusEv
shim__ZN7android9STECamera15cancelAutoFocusEv:
bl _ZN7android9STECamera15cancelAutoFocusEv

.globl shim__ZN7android18CameraEventHandlerEPvS0_13OMX_EVENTTYPEmmS0_
shim__ZN7android18CameraEventHandlerEPvS0_13OMX_EVENTTYPEmmS0_:
bl _ZN7android18CameraEventHandlerEPvS0_13OMX_EVENTTYPEmmS0_

.globl shim__ZN7android9STECamera22doSmoothZoomProcessingEPv
shim__ZN7android9STECamera22doSmoothZoomProcessingEPv:
bl _ZN7android9STECamera22doSmoothZoomProcessingEPv

.globl shim__ZN7android9STECamera11initThreadsEv
shim__ZN7android9STECamera11initThreadsEv:
bl _ZN7android9STECamera11initThreadsEv

.globl shim__ZN7android9STECamera4initEv
shim__ZN7android9STECamera4initEv:
bl _ZN7android9STECamera4initEv

.globl shim__ZN7android2spINS_14MemoryHeapBaseEE5clearEv
shim__ZN7android2spINS_14MemoryHeapBaseEE5clearEv:
bl _ZN7android2spINS_14MemoryHeapBaseEE5clearEv

.globl shim__ZN7android9STECamera12destroyHeapsEv
shim__ZN7android9STECamera12destroyHeapsEv:
bl _ZN7android9STECamera12destroyHeapsEv

.globl shim__ZN7android9STECamera21setupPreviewSwBuffersEii
shim__ZN7android9STECamera21setupPreviewSwBuffersEii:
bl _ZN7android9STECamera21setupPreviewSwBuffersEii

.globl shim__ZN7android9STECamera16doB2R2ProcessingEi
shim__ZN7android9STECamera16doB2R2ProcessingEi:
bl _ZN7android9STECamera16doB2R2ProcessingEi

.globl shim__ZN7android9STECamera15B2R2ThreadEntryEv
shim__ZN7android9STECamera15B2R2ThreadEntryEv:
bl _ZN7android9STECamera15B2R2ThreadEntryEv

.globl shim__ZN7android9STECamera17B2R2ThreadWrapperEPv
shim__ZN7android9STECamera17B2R2ThreadWrapperEPv:
bl _ZN7android9STECamera17B2R2ThreadWrapperEPv

.globl shim__ZN7android9STECamera19doPreviewProcessingERNS_11OmxBuffInfoER8OMX_BOOL
shim__ZN7android9STECamera19doPreviewProcessingERNS_11OmxBuffInfoER8OMX_BOOL:
bl _ZN7android9STECamera19doPreviewProcessingERNS_11OmxBuffInfoER8OMX_BOOL

.globl shim__ZN7android13PreviewThreadINS_11OmxBuffInfoEE12handleBufferERS1_R8OMX_BOOL
shim__ZN7android13PreviewThreadINS_11OmxBuffInfoEE12handleBufferERS1_R8OMX_BOOL:
bl _ZN7android13PreviewThreadINS_11OmxBuffInfoEE12handleBufferERS1_R8OMX_BOOL

.globl shim__ZN7android9STECamera18configureVideoHeapEv
shim__ZN7android9STECamera18configureVideoHeapEv:
bl _ZN7android9STECamera18configureVideoHeapEv

.globl shim__ZN7android9STECamera17doVideoModeConfigEv
shim__ZN7android9STECamera17doVideoModeConfigEv:
bl _ZN7android9STECamera17doVideoModeConfigEv

.globl shim__ZN7android2spINS_11IMemoryHeapEEaSINS_17CamMemoryHeapBaseEEERS2_PT_
shim__ZN7android2spINS_11IMemoryHeapEEaSINS_17CamMemoryHeapBaseEEERS2_PT_:
bl _ZN7android2spINS_11IMemoryHeapEEaSINS_17CamMemoryHeapBaseEEERS2_PT_

.globl shim__ZN7android9STECamera27shareNativeBuffWithOMXPortsEv
shim__ZN7android9STECamera27shareNativeBuffWithOMXPortsEv:
bl _ZN7android9STECamera27shareNativeBuffWithOMXPortsEv

.globl shim__ZN7android9STECamera15initPreviewHeapEv
shim__ZN7android9STECamera15initPreviewHeapEv:
bl _ZN7android9STECamera15initPreviewHeapEv

.globl shim__ZN7android9STECamera17doStillModeConfigEv
shim__ZN7android9STECamera17doStillModeConfigEv:
bl _ZN7android9STECamera17doStillModeConfigEv

.globl shim__ZN7android9STECamera14doStartPreviewEv
shim__ZN7android9STECamera14doStartPreviewEv:
bl _ZN7android9STECamera14doStartPreviewEv

.globl shim__ZN7android9STECamera12startPreviewEv
shim__ZN7android9STECamera12startPreviewEv:
bl _ZN7android9STECamera12startPreviewEv

.globl shim__ZN7android9STECamera16setPreviewWindowEP18preview_stream_ops
shim__ZN7android9STECamera16setPreviewWindowEP18preview_stream_ops:
bl _ZN7android9STECamera16setPreviewWindowEP18preview_stream_ops

.globl shim__ZN7android13ThreadHandlerINS_22SwProcessingThreadDataEE10threadLoopEv
shim__ZN7android13ThreadHandlerINS_22SwProcessingThreadDataEE10threadLoopEv:
bl _ZN7android13ThreadHandlerINS_22SwProcessingThreadDataEE10threadLoopEv

.globl shim__ZN7android13ThreadHandlerINS_22SwProcessingThreadDataEED2Ev
shim__ZN7android13ThreadHandlerINS_22SwProcessingThreadDataEED2Ev:
bl _ZN7android13ThreadHandlerINS_22SwProcessingThreadDataEED2Ev

.globl shim__ZTv0_n12_N7android13ThreadHandlerINS_22SwProcessingThreadDataEED1Ev
shim__ZTv0_n12_N7android13ThreadHandlerINS_22SwProcessingThreadDataEED1Ev:
bl _ZTv0_n12_N7android13ThreadHandlerINS_22SwProcessingThreadDataEED1Ev

.globl shim__ZN7android13ThreadHandlerINS_22SwProcessingThreadDataEED1Ev
shim__ZN7android13ThreadHandlerINS_22SwProcessingThreadDataEED1Ev:
bl _ZN7android13ThreadHandlerINS_22SwProcessingThreadDataEED1Ev

.globl shim__ZTv0_n12_N7android13ThreadHandlerINS_22SwProcessingThreadDataEED0Ev
shim__ZTv0_n12_N7android13ThreadHandlerINS_22SwProcessingThreadDataEED0Ev:
bl _ZTv0_n12_N7android13ThreadHandlerINS_22SwProcessingThreadDataEED0Ev

.globl shim__ZN7android13ThreadHandlerINS_22SwProcessingThreadDataEED0Ev
shim__ZN7android13ThreadHandlerINS_22SwProcessingThreadDataEED0Ev:
bl _ZN7android13ThreadHandlerINS_22SwProcessingThreadDataEED0Ev

.globl shim__ZN7android13ThreadHandlerINS_11OmxBuffInfoEE10threadLoopEv
shim__ZN7android13ThreadHandlerINS_11OmxBuffInfoEE10threadLoopEv:
bl _ZN7android13ThreadHandlerINS_11OmxBuffInfoEE10threadLoopEv

.globl shim__ZN7android13ThreadHandlerINS_11OmxBuffInfoEED2Ev
shim__ZN7android13ThreadHandlerINS_11OmxBuffInfoEED2Ev:
bl _ZN7android13ThreadHandlerINS_11OmxBuffInfoEED2Ev

.globl shim__ZTv0_n12_N7android13ThreadHandlerINS_11OmxBuffInfoEED1Ev
shim__ZTv0_n12_N7android13ThreadHandlerINS_11OmxBuffInfoEED1Ev:
bl _ZTv0_n12_N7android13ThreadHandlerINS_11OmxBuffInfoEED1Ev

.globl shim__ZN7android13ThreadHandlerINS_11OmxBuffInfoEED1Ev
shim__ZN7android13ThreadHandlerINS_11OmxBuffInfoEED1Ev:
bl _ZN7android13ThreadHandlerINS_11OmxBuffInfoEED1Ev

.globl shim__ZTv0_n12_N7android13ThreadHandlerINS_11OmxBuffInfoEED0Ev
shim__ZTv0_n12_N7android13ThreadHandlerINS_11OmxBuffInfoEED0Ev:
bl _ZTv0_n12_N7android13ThreadHandlerINS_11OmxBuffInfoEED0Ev

.globl shim__ZN7android13ThreadHandlerINS_11OmxBuffInfoEED0Ev
shim__ZN7android13ThreadHandlerINS_11OmxBuffInfoEED0Ev:
bl _ZN7android13ThreadHandlerINS_11OmxBuffInfoEED0Ev

.globl shim__ZN7android9STECamera17flushVideoBuffersEb
shim__ZN7android9STECamera17flushVideoBuffersEb:
bl _ZN7android9STECamera17flushVideoBuffersEb

.globl shim__ZN7android9STECamera15doStopRecordingEv
shim__ZN7android9STECamera15doStopRecordingEv:
bl _ZN7android9STECamera15doStopRecordingEv

.globl shim__ZN7android9STECamera13stopRecordingEv
shim__ZN7android9STECamera13stopRecordingEv:
bl _ZN7android9STECamera13stopRecordingEv

.globl shim__ZN7android9STECamera22flushViewFinderBuffersEb
shim__ZN7android9STECamera22flushViewFinderBuffersEb:
bl _ZN7android9STECamera22flushViewFinderBuffersEb

.globl shim__ZN7android9STECamera13doStopPreviewEv
shim__ZN7android9STECamera13doStopPreviewEv:
bl _ZN7android9STECamera13doStopPreviewEv

.globl shim__ZN7android9STECamera11stopPreviewEv
shim__ZN7android9STECamera11stopPreviewEv:
bl _ZN7android9STECamera11stopPreviewEv

.globl shim__ZN7android9STECamera21UpdateVideoStabStatusEv
shim__ZN7android9STECamera21UpdateVideoStabStatusEv:
bl _ZN7android9STECamera21UpdateVideoStabStatusEv

.globl shim__ZN7android9STECamera18ReconfigureVFStillEbb
shim__ZN7android9STECamera18ReconfigureVFStillEbb:
bl _ZN7android9STECamera18ReconfigureVFStillEbb

.globl shim__ZN7android9STECamera18ReconfigureVFVideoEbb
shim__ZN7android9STECamera18ReconfigureVFVideoEbb:
bl _ZN7android9STECamera18ReconfigureVFVideoEbb

.globl shim__ZN7android9STECamera13setParametersERKNS_16CameraParametersE
shim__ZN7android9STECamera13setParametersERKNS_16CameraParametersE:
bl _ZN7android9STECamera13setParametersERKNS_16CameraParametersE

.globl shim__ZN7android9STECamera13setParametersEPKc
shim__ZN7android9STECamera13setParametersEPKc:
bl _ZN7android9STECamera13setParametersEPKc

.globl shim__ZN7android13ThreadHandlerINS_20ReqHandlerThreadDataEE10threadLoopEv
shim__ZN7android13ThreadHandlerINS_20ReqHandlerThreadDataEE10threadLoopEv:
bl _ZN7android13ThreadHandlerINS_20ReqHandlerThreadDataEE10threadLoopEv

.globl shim__ZN7android13ThreadHandlerINS_20ReqHandlerThreadDataEED2Ev
shim__ZN7android13ThreadHandlerINS_20ReqHandlerThreadDataEED2Ev:
bl _ZN7android13ThreadHandlerINS_20ReqHandlerThreadDataEED2Ev

.globl shim__ZTv0_n12_N7android13ThreadHandlerINS_20ReqHandlerThreadDataEED1Ev
shim__ZTv0_n12_N7android13ThreadHandlerINS_20ReqHandlerThreadDataEED1Ev:
bl _ZTv0_n12_N7android13ThreadHandlerINS_20ReqHandlerThreadDataEED1Ev

.globl shim__ZN7android13ThreadHandlerINS_20ReqHandlerThreadDataEED1Ev
shim__ZN7android13ThreadHandlerINS_20ReqHandlerThreadDataEED1Ev:
bl _ZN7android13ThreadHandlerINS_20ReqHandlerThreadDataEED1Ev

.globl shim__ZTv0_n12_N7android13ThreadHandlerINS_20ReqHandlerThreadDataEED0Ev
shim__ZTv0_n12_N7android13ThreadHandlerINS_20ReqHandlerThreadDataEED0Ev:
bl _ZTv0_n12_N7android13ThreadHandlerINS_20ReqHandlerThreadDataEED0Ev

.globl shim__ZN7android13ThreadHandlerINS_20ReqHandlerThreadDataEED0Ev
shim__ZN7android13ThreadHandlerINS_20ReqHandlerThreadDataEED0Ev:
bl _ZN7android13ThreadHandlerINS_20ReqHandlerThreadDataEED0Ev

.globl shim__ZN7android16ReqHandlerThreadINS_20ReqHandlerThreadDataEE7requestERS1_b
shim__ZN7android16ReqHandlerThreadINS_20ReqHandlerThreadDataEE7requestERS1_b:
bl _ZN7android16ReqHandlerThreadINS_20ReqHandlerThreadDataEE7requestERS1_b

.globl shim__ZN7android13ThreadHandlerINS_19AutoFocusThreadDataEE10threadLoopEv
shim__ZN7android13ThreadHandlerINS_19AutoFocusThreadDataEE10threadLoopEv:
bl _ZN7android13ThreadHandlerINS_19AutoFocusThreadDataEE10threadLoopEv

.globl shim__ZN7android13ThreadHandlerINS_19AutoFocusThreadDataEED2Ev
shim__ZN7android13ThreadHandlerINS_19AutoFocusThreadDataEED2Ev:
bl _ZN7android13ThreadHandlerINS_19AutoFocusThreadDataEED2Ev

.globl shim__ZTv0_n12_N7android13ThreadHandlerINS_19AutoFocusThreadDataEED1Ev
shim__ZTv0_n12_N7android13ThreadHandlerINS_19AutoFocusThreadDataEED1Ev:
bl _ZTv0_n12_N7android13ThreadHandlerINS_19AutoFocusThreadDataEED1Ev

.globl shim__ZN7android13ThreadHandlerINS_19AutoFocusThreadDataEED1Ev
shim__ZN7android13ThreadHandlerINS_19AutoFocusThreadDataEED1Ev:
bl _ZN7android13ThreadHandlerINS_19AutoFocusThreadDataEED1Ev

.globl shim__ZTv0_n12_N7android13ThreadHandlerINS_19AutoFocusThreadDataEED0Ev
shim__ZTv0_n12_N7android13ThreadHandlerINS_19AutoFocusThreadDataEED0Ev:
bl _ZTv0_n12_N7android13ThreadHandlerINS_19AutoFocusThreadDataEED0Ev

.globl shim__ZN7android13ThreadHandlerINS_19AutoFocusThreadDataEED0Ev
shim__ZN7android13ThreadHandlerINS_19AutoFocusThreadDataEED0Ev:
bl _ZN7android13ThreadHandlerINS_19AutoFocusThreadDataEED0Ev

.globl shim__ZN7android9STECamera14destroyThreadsEv
shim__ZN7android9STECamera14destroyThreadsEv:
bl _ZN7android9STECamera14destroyThreadsEv

.globl shim__ZN7android9STECamera18postOmxCompCleanUpEv
shim__ZN7android9STECamera18postOmxCompCleanUpEv:
bl _ZN7android9STECamera18postOmxCompCleanUpEv

.globl shim__ZN7android9STECamera15cleanUpDspPanicEPv
shim__ZN7android9STECamera15cleanUpDspPanicEPv:
bl _ZN7android9STECamera15cleanUpDspPanicEPv

.globl shim__ZN7android9STECamera7cleanUpEv
shim__ZN7android9STECamera7cleanUpEv:
bl _ZN7android9STECamera7cleanUpEv

.globl shim__ZN7android9STECameraD1Ev
shim__ZN7android9STECameraD1Ev:
bl _ZN7android9STECameraD1Ev

.globl shim__ZN7android9STECameraD0Ev
shim__ZN7android9STECameraD0Ev:
bl _ZN7android9STECameraD0Ev

.globl shim__ZN7android11Deinterlace20DecodeInterleaveDataEPhPiS1_iii
shim__ZN7android11Deinterlace20DecodeInterleaveDataEPhPiS1_iii:
bl _ZN7android11Deinterlace20DecodeInterleaveDataEPhPiS1_iii

.globl shim__ZN7android11Deinterlace33deinterlacingYuvThumbnailFromJpegEPcPiS1_iii
shim__ZN7android11Deinterlace33deinterlacingYuvThumbnailFromJpegEPcPiS1_iii:
bl _ZN7android11Deinterlace33deinterlacingYuvThumbnailFromJpegEPcPiS1_iii

.globl shim__ZN7android15STEExtIspCamera14previewEnabledEv
shim__ZN7android15STEExtIspCamera14previewEnabledEv:
bl _ZN7android15STEExtIspCamera14previewEnabledEv

.globl shim__ZN7android15STEExtIspCamera11sendCommandEiii
shim__ZN7android15STEExtIspCamera11sendCommandEiii:
bl _ZN7android15STEExtIspCamera11sendCommandEiii

.globl shim__ZN7android15STEExtIspCamera13getParametersEv
shim__ZN7android15STEExtIspCamera13getParametersEv:
bl _ZN7android15STEExtIspCamera13getParametersEv

.globl shim__ZN7android15STEExtIspCamera21releaseRecordingFrameEPKv
shim__ZN7android15STEExtIspCamera21releaseRecordingFrameEPKv:
bl _ZN7android15STEExtIspCamera21releaseRecordingFrameEPKv

.globl shim__ZN7android15STEExtIspCamera13cancelPictureEv
shim__ZN7android15STEExtIspCamera13cancelPictureEv:
bl _ZN7android15STEExtIspCamera13cancelPictureEv

.globl shim__ZN7android15STEExtIspCamera13putParametersEPc
shim__ZN7android15STEExtIspCamera13putParametersEPc:
bl _ZN7android15STEExtIspCamera13putParametersEPc

.globl shim__ZNK7android15STEExtIspCamera4dumpEi
shim__ZNK7android15STEExtIspCamera4dumpEi:
bl _ZNK7android15STEExtIspCamera4dumpEi

.globl shim__ZN7android15STEExtIspCamera16recordingEnabledEv
shim__ZN7android15STEExtIspCamera16recordingEnabledEv:
bl _ZN7android15STEExtIspCamera16recordingEnabledEv

.globl shim__ZN7android15STEExtIspCamera14msgTypeEnabledEi
shim__ZN7android15STEExtIspCamera14msgTypeEnabledEi:
bl _ZN7android15STEExtIspCamera14msgTypeEnabledEi

.globl shim__ZN7android15STEExtIspCamera14disableMsgTypeEi
shim__ZN7android15STEExtIspCamera14disableMsgTypeEi:
bl _ZN7android15STEExtIspCamera14disableMsgTypeEi

.globl shim__ZN7android15STEExtIspCamera13enableMsgTypeEi
shim__ZN7android15STEExtIspCamera13enableMsgTypeEi:
bl _ZN7android15STEExtIspCamera13enableMsgTypeEi

.globl shim__ZN7android15STEExtIspCamera12setCallbacksEPFviiiPvEPFviPK13camera_memoryjP21camera_frame_metadataS1_EPFvxiS6_jS1_EPFPS4_ijjS1_ES1_
shim__ZN7android15STEExtIspCamera12setCallbacksEPFviiiPvEPFviPK13camera_memoryjP21camera_frame_metadataS1_EPFvxiS6_jS1_EPFPS4_ijjS1_ES1_:
bl _ZN7android15STEExtIspCamera12setCallbacksEPFviiiPvEPFviPK13camera_memoryjP21camera_frame_metadataS1_EPFvxiS6_jS1_EPFPS4_ijjS1_ES1_

.globl shim__ZN7android15STEExtIspCamera15cancelAutoFocusEv
shim__ZN7android15STEExtIspCamera15cancelAutoFocusEv:
bl _ZN7android15STEExtIspCamera15cancelAutoFocusEv

.globl shim__Z22getOmxPixFmtFromKeyStrPc
shim__Z22getOmxPixFmtFromKeyStrPc:
bl _Z22getOmxPixFmtFromKeyStrPc

.globl shim__ZN7android15STEExtIspCamera11takePictureEv
shim__ZN7android15STEExtIspCamera11takePictureEv:
bl _ZN7android15STEExtIspCamera11takePictureEv

.globl shim__ZN7android15STEExtIspCamera9autoFocusEv
shim__ZN7android15STEExtIspCamera9autoFocusEv:
bl _ZN7android15STEExtIspCamera9autoFocusEv

.globl shim__ZN7android15STEExtIspCamera13stopRecordingEv
shim__ZN7android15STEExtIspCamera13stopRecordingEv:
bl _ZN7android15STEExtIspCamera13stopRecordingEv

.globl shim__ZN7android15STEExtIspCamera14startRecordingEv
shim__ZN7android15STEExtIspCamera14startRecordingEv:
bl _ZN7android15STEExtIspCamera14startRecordingEv

.globl shim__ZN7android15STEExtIspCamera16setPreviewWindowEP18preview_stream_ops
shim__ZN7android15STEExtIspCamera16setPreviewWindowEP18preview_stream_ops:
bl _ZN7android15STEExtIspCamera16setPreviewWindowEP18preview_stream_ops

.globl shim__ZN7android15STEExtIspCameraC1Ei
shim__ZN7android15STEExtIspCameraC1Ei:
bl _ZN7android15STEExtIspCameraC1Ei

.globl shim__ZN7android15STEExtIspCamera20setDumyPreviewWindowEv
shim__ZN7android15STEExtIspCamera20setDumyPreviewWindowEv:
bl _ZN7android15STEExtIspCamera20setDumyPreviewWindowEv

.globl shim__ZN7android15STEExtIspCamera7cleanUpEv
shim__ZN7android15STEExtIspCamera7cleanUpEv:
bl _ZN7android15STEExtIspCamera7cleanUpEv

.globl shim__ZN7android15STEExtIspCameraD1Ev
shim__ZN7android15STEExtIspCameraD1Ev:
bl _ZN7android15STEExtIspCameraD1Ev

.globl shim__ZN7android15STEExtIspCameraD0Ev
shim__ZN7android15STEExtIspCameraD0Ev:
bl _ZN7android15STEExtIspCameraD0Ev

.globl shim__ZN7android15STEExtIspCamera14doStartPreviewEv
shim__ZN7android15STEExtIspCamera14doStartPreviewEv:
bl _ZN7android15STEExtIspCamera14doStartPreviewEv

.globl shim__ZN7android15STEExtIspCamera12startPreviewEv
shim__ZN7android15STEExtIspCamera12startPreviewEv:
bl _ZN7android15STEExtIspCamera12startPreviewEv

.globl shim__ZN7android15STEExtIspCamera15autoFocusThreadEv
shim__ZN7android15STEExtIspCamera15autoFocusThreadEv:
bl _ZN7android15STEExtIspCamera15autoFocusThreadEv

.globl shim__ZN7android15STEExtIspCamera20beginAutoFocusThreadEPv
shim__ZN7android15STEExtIspCamera20beginAutoFocusThreadEPv:
bl _ZN7android15STEExtIspCamera20beginAutoFocusThreadEPv

.globl shim__ZN7android15STEExtIspCamera7msgNameEi
shim__ZN7android15STEExtIspCamera7msgNameEi:
bl _ZN7android15STEExtIspCamera7msgNameEi

.globl shim__ZNK7android15STEExtIspCamera17GetPropRecordSizeEPiS1_
shim__ZNK7android15STEExtIspCamera17GetPropRecordSizeEPiS1_:
bl _ZNK7android15STEExtIspCamera17GetPropRecordSizeEPiS1_

.globl shim__ZN7android15STEExtIspCamera13doStopPreviewEv
shim__ZN7android15STEExtIspCamera13doStopPreviewEv:
bl _ZN7android15STEExtIspCamera13doStopPreviewEv

.globl shim__ZN7android15STEExtIspCamera7releaseEv
shim__ZN7android15STEExtIspCamera7releaseEv:
bl _ZN7android15STEExtIspCamera7releaseEv

.globl shim__ZN7android15STEExtIspCamera11stopPreviewEv
shim__ZN7android15STEExtIspCamera11stopPreviewEv:
bl _ZN7android15STEExtIspCamera11stopPreviewEv

.globl shim__ZN7android15STEExtIspCamera13setParametersERKNS_16CameraParametersE
shim__ZN7android15STEExtIspCamera13setParametersERKNS_16CameraParametersE:
bl _ZN7android15STEExtIspCamera13setParametersERKNS_16CameraParametersE

.globl shim__ZN7android15STEExtIspCamera13setParametersEPKc
shim__ZN7android15STEExtIspCamera13setParametersEPKc:
bl _ZN7android15STEExtIspCamera13setParametersEPKc

.globl shim__ZN7android2spINS_10MemoryBaseEEC1EPS1_
shim__ZN7android2spINS_10MemoryBaseEEC1EPS1_:
bl _ZN7android2spINS_10MemoryBaseEEC1EPS1_

.globl shim__ZN7android2spINS_10MemoryBaseEEC1ERKS2_
shim__ZN7android2spINS_10MemoryBaseEEC1ERKS2_:
bl _ZN7android2spINS_10MemoryBaseEEC1ERKS2_

.globl shim__ZN7android2spINS_10MemoryBaseEEaSEPS1_
shim__ZN7android2spINS_10MemoryBaseEEaSEPS1_:
bl _ZN7android2spINS_10MemoryBaseEEaSEPS1_

.globl shim__ZN7android2spINS_10MemoryBaseEE5clearEv
shim__ZN7android2spINS_10MemoryBaseEE5clearEv:
bl _ZN7android2spINS_10MemoryBaseEE5clearEv

.globl shim__ZN7android15STEExtIspCamera17doSnapWhileRecordEv
shim__ZN7android15STEExtIspCamera17doSnapWhileRecordEv:
bl _ZN7android15STEExtIspCamera17doSnapWhileRecordEv

.globl shim__ZN7android15STEExtIspCamera13pictureThreadEv
shim__ZN7android15STEExtIspCamera13pictureThreadEv:
bl _ZN7android15STEExtIspCamera13pictureThreadEv

.globl shim__ZN7android15STEExtIspCamera18beginPictureThreadEPv
shim__ZN7android15STEExtIspCamera18beginPictureThreadEPv:
bl _ZN7android15STEExtIspCamera18beginPictureThreadEPv

.globl shim__ZN10DynSetting8initKeysEv
shim__ZN10DynSetting8initKeysEv:
bl _ZN10DynSetting8initKeysEv

.globl shim__ZN10DynSetting10initValuesEv
shim__ZN10DynSetting10initValuesEv:
bl _ZN10DynSetting10initValuesEv

.globl shim__ZN10DynSettingC1Ev
shim__ZN10DynSettingC1Ev:
bl _ZN10DynSettingC1Ev

.globl shim__ZN7android17cameraGetLocationEv
shim__ZN7android17cameraGetLocationEv:
bl _ZN7android17cameraGetLocationEv

.globl shim__ZN7android10SteExifMngC1Ev
shim__ZN7android10SteExifMngC1Ev:
bl _ZN7android10SteExifMngC1Ev

.globl shim__ZN7android10SteExifMngD1Ev
shim__ZN7android10SteExifMngD1Ev:
bl _ZN7android10SteExifMngD1Ev

.globl shim__ZN7android10SteExifMng17getPropRecordSizeERKNS_16CameraParametersEPiS4_
shim__ZN7android10SteExifMng17getPropRecordSizeERKNS_16CameraParametersEPiS4_:
bl _ZN7android10SteExifMng17getPropRecordSizeERKNS_16CameraParametersEPiS4_

.globl shim__ZN7android10SteExifMng15UpdateExifFieldERKNS_16CameraParametersEPciS4_iS4_iii
shim__ZN7android10SteExifMng15UpdateExifFieldERKNS_16CameraParametersEPciS4_iS4_iii:
bl _ZN7android10SteExifMng15UpdateExifFieldERKNS_16CameraParametersEPciS4_iS4_iii

.globl shim__ZN7android8OmxUtilsC1Ev
shim__ZN7android8OmxUtilsC1Ev:
bl _ZN7android8OmxUtilsC1Ev

#if 0
.globl shim__ZN7android8OmxUtilsD1Ev
shim__ZN7android8OmxUtilsD1Ev:
bl _ZN7android8OmxUtilsD1Ev

.globl shim__ZN7android8OmxUtils4initEv
shim__ZN7android8OmxUtils4initEv:
bl _ZN7android8OmxUtils4initEv

.globl shim__ZN7android8OmxUtils4nameE13OMX_ERRORTYPE
shim__ZN7android8OmxUtils4nameE13OMX_ERRORTYPE:
bl _ZN7android8OmxUtils4nameE13OMX_ERRORTYPE
#endif

#if 0
.globl shim__ZN7android8OmxUtils4nameE15OMX_COMMANDTYPE
shim__ZN7android8OmxUtils4nameE15OMX_COMMANDTYPE:
bl _ZN7android8OmxUtils4nameE15OMX_COMMANDTYPE

.globl shim__ZN7android8OmxUtils4nameE13OMX_STATETYPE
shim__ZN7android8OmxUtils4nameE13OMX_STATETYPE:
bl _ZN7android8OmxUtils4nameE13OMX_STATETYPE

.globl shim__ZN7android8OmxUtils4nameE13OMX_EVENTTYPE
shim__ZN7android8OmxUtils4nameE13OMX_EVENTTYPE:
bl _ZN7android8OmxUtils4nameE13OMX_EVENTTYPE
#endif

.globl shim__ZN7android8OmxUtils4nameE22OMX_BUFFERSUPPLIERTYPE
shim__ZN7android8OmxUtils4nameE22OMX_BUFFERSUPPLIERTYPE:
bl _ZN7android8OmxUtils4nameE22OMX_BUFFERSUPPLIERTYPE

.globl shim__ZN7android8OmxUtils4nameE11OMX_DIRTYPE
shim__ZN7android8OmxUtils4nameE11OMX_DIRTYPE:
bl _ZN7android8OmxUtils4nameE11OMX_DIRTYPE

.globl shim__ZN7android8OmxUtils4nameE18OMX_PORTDOMAINTYPE
shim__ZN7android8OmxUtils4nameE18OMX_PORTDOMAINTYPE:
bl _ZN7android8OmxUtils4nameE18OMX_PORTDOMAINTYPE

.globl shim__ZN7android8OmxUtils4nameE20OMX_VIDEO_CODINGTYPE
shim__ZN7android8OmxUtils4nameE20OMX_VIDEO_CODINGTYPE:
bl _ZN7android8OmxUtils4nameE20OMX_VIDEO_CODINGTYPE

.globl shim__ZN7android8OmxUtils4nameE20OMX_IMAGE_CODINGTYPE
shim__ZN7android8OmxUtils4nameE20OMX_IMAGE_CODINGTYPE:
bl _ZN7android8OmxUtils4nameE20OMX_IMAGE_CODINGTYPE

.globl shim__ZN7android8OmxUtils4nameE20OMX_COLOR_FORMATTYPE
shim__ZN7android8OmxUtils4nameE20OMX_COLOR_FORMATTYPE:
bl _ZN7android8OmxUtils4nameE20OMX_COLOR_FORMATTYPE

.globl shim__ZN7android8OmxUtils4nameE19OMX_FOCUSSTATUSTYPE
shim__ZN7android8OmxUtils4nameE19OMX_FOCUSSTATUSTYPE:
bl _ZN7android8OmxUtils4nameE19OMX_FOCUSSTATUSTYPE

.globl shim__ZN7android8OmxUtils4nameE26OMX_SYMBIAN_FOCUSRANGETYPE
shim__ZN7android8OmxUtils4nameE26OMX_SYMBIAN_FOCUSRANGETYPE:
bl _ZN7android8OmxUtils4nameE26OMX_SYMBIAN_FOCUSRANGETYPE

.globl shim__ZN7android8OmxUtils4nameE20OMX_SYMBIAN_LOCKTYPE
shim__ZN7android8OmxUtils4nameE20OMX_SYMBIAN_LOCKTYPE:
bl _ZN7android8OmxUtils4nameE20OMX_SYMBIAN_LOCKTYPE

.globl shim__ZN7android8OmxUtils4nameEPv
shim__ZN7android8OmxUtils4nameEPv:
bl _ZN7android8OmxUtils4nameEPv

.globl shim__ZN7android8OmxUtils4dumpER28OMX_AUDIO_PORTDEFINITIONTYPE
shim__ZN7android8OmxUtils4dumpER28OMX_AUDIO_PORTDEFINITIONTYPE:
bl _ZN7android8OmxUtils4dumpER28OMX_AUDIO_PORTDEFINITIONTYPE

.globl shim__ZN7android8OmxUtils4dumpER28OMX_VIDEO_PORTDEFINITIONTYPE
shim__ZN7android8OmxUtils4dumpER28OMX_VIDEO_PORTDEFINITIONTYPE:
bl _ZN7android8OmxUtils4dumpER28OMX_VIDEO_PORTDEFINITIONTYPE

.globl shim__ZN7android8OmxUtils4dumpER28OMX_IMAGE_PORTDEFINITIONTYPE
shim__ZN7android8OmxUtils4dumpER28OMX_IMAGE_PORTDEFINITIONTYPE:
bl _ZN7android8OmxUtils4dumpER28OMX_IMAGE_PORTDEFINITIONTYPE

.globl shim__ZN7android8OmxUtils4dumpER28OMX_OTHER_PORTDEFINITIONTYPE
shim__ZN7android8OmxUtils4dumpER28OMX_OTHER_PORTDEFINITIONTYPE:
bl _ZN7android8OmxUtils4dumpER28OMX_OTHER_PORTDEFINITIONTYPE

.globl shim__ZN7android8OmxUtils4dumpER28OMX_PARAM_PORTDEFINITIONTYPE
shim__ZN7android8OmxUtils4dumpER28OMX_PARAM_PORTDEFINITIONTYPE:
bl _ZN7android8OmxUtils4dumpER28OMX_PARAM_PORTDEFINITIONTYPE

.globl shim__ZN7android8OmxUtils3bppE20OMX_COLOR_FORMATTYPE
shim__ZN7android8OmxUtils3bppE20OMX_COLOR_FORMATTYPE:
bl _ZN7android8OmxUtils3bppE20OMX_COLOR_FORMATTYPE

.globl shim__ZN7android8OmxUtils23convertOmxErrorToStatusE13OMX_ERRORTYPE
shim__ZN7android8OmxUtils23convertOmxErrorToStatusE13OMX_ERRORTYPE:
bl _ZN7android8OmxUtils23convertOmxErrorToStatusE13OMX_ERRORTYPE

.globl shim__ZN7android8OmxUtils19setOMXComponentNameEPvPcNS0_13OMXComponentsE
shim__ZN7android8OmxUtils19setOMXComponentNameEPvPcNS0_13OMXComponentsE:
bl _ZN7android8OmxUtils19setOMXComponentNameEPvPcNS0_13OMXComponentsE

.globl shim__ZN7android8OmxUtils12setPortStateEPv15OMX_COMMANDTYPEmS1_P5sem_t
shim__ZN7android8OmxUtils12setPortStateEPv15OMX_COMMANDTYPEmS1_P5sem_t:
bl _ZN7android8OmxUtils12setPortStateEPv15OMX_COMMANDTYPEmS1_P5sem_t

.globl shim__ZN7android8OmxUtils9flushPortEPvmS1_P5sem_t
shim__ZN7android8OmxUtils9flushPortEPvmS1_P5sem_t:
bl _ZN7android8OmxUtils9flushPortEPvmS1_P5sem_t

#if 0
.globl shim__ZN7android8OmxUtils10initializeER28OMX_PARAM_PORTDEFINITIONTYPE18OMX_PORTDOMAINTYPEm
shim__ZN7android8OmxUtils10initializeER28OMX_PARAM_PORTDEFINITIONTYPE18OMX_PORTDOMAINTYPEm:
bl _ZN7android8OmxUtils10initializeER28OMX_PARAM_PORTDEFINITIONTYPE18OMX_PORTDOMAINTYPEm
#endif

.globl shim__ZN7android13OmxILExtIndexC1EPv
shim__ZN7android13OmxILExtIndexC1EPv:
bl _ZN7android13OmxILExtIndexC1EPv

.globl shim__ZN7android13OmxILExtIndex4initEv
shim__ZN7android13OmxILExtIndex4initEv:
bl _ZN7android13OmxILExtIndex4initEv

.globl shim__ZN7android15OmxReqCbHandlerC1Ev
shim__ZN7android15OmxReqCbHandlerC1Ev:
bl _ZN7android15OmxReqCbHandlerC1Ev

.globl shim__ZN7android15OmxReqCbHandler4initENS0_4TypeEPvm13OMX_INDEXTYPE
shim__ZN7android15OmxReqCbHandler4initENS0_4TypeEPvm13OMX_INDEXTYPE:
bl _ZN7android15OmxReqCbHandler4initENS0_4TypeEPvm13OMX_INDEXTYPE

.globl shim__ZN15FrameRateDumperC1Ev
shim__ZN15FrameRateDumperC1Ev:
bl _ZN15FrameRateDumperC1Ev

.globl shim__ZN15FrameRateDumperC1EPKcN10DynSetting4TypeE
shim__ZN15FrameRateDumperC1EPKcN10DynSetting4TypeE:
bl _ZN15FrameRateDumperC1EPKcN10DynSetting4TypeE

.globl shim__ZN15FrameRateDumper10logAndDumpEv
shim__ZN15FrameRateDumper10logAndDumpEv:
bl _ZN15FrameRateDumper10logAndDumpEv

.globl shim__ZN7android16CFrameDumpReplay4Type7setDataEiiNS0_9TColorFmtEPNS_9STECameraEiP10MMHwBuffer
shim__ZN7android16CFrameDumpReplay4Type7setDataEiiNS0_9TColorFmtEPNS_9STECameraEiP10MMHwBuffer:
bl _ZN7android16CFrameDumpReplay4Type7setDataEiiNS0_9TColorFmtEPNS_9STECameraEiP10MMHwBuffer

.globl shim__ZN7android16CFrameDumpReplay4Type9resetDataEv
shim__ZN7android16CFrameDumpReplay4Type9resetDataEv:
bl _ZN7android16CFrameDumpReplay4Type9resetDataEv

.globl shim__ZN7android16CFrameDumpReplayC1Ev
shim__ZN7android16CFrameDumpReplayC1Ev:
bl _ZN7android16CFrameDumpReplayC1Ev

.globl shim__ZN7android10CFrameDumpD1Ev
shim__ZN7android10CFrameDumpD1Ev:
bl _ZN7android10CFrameDumpD1Ev

.globl shim__ZN7android10CFrameDumpD0Ev
shim__ZN7android10CFrameDumpD0Ev:
bl _ZN7android10CFrameDumpD0Ev

.globl shim__ZN7android10CFrameDumpC1Ev
shim__ZN7android10CFrameDumpC1Ev:
bl _ZN7android10CFrameDumpC1Ev

.globl shim__ZN7android10CFrameDump15getNextFileNameENS_16CFrameDumpReplay15TDumpReplayTypeEPKc
shim__ZN7android10CFrameDump15getNextFileNameENS_16CFrameDumpReplay15TDumpReplayTypeEPKc:
bl _ZN7android10CFrameDump15getNextFileNameENS_16CFrameDumpReplay15TDumpReplayTypeEPKc

.globl shim__ZN7android10CFrameDump10dumpBufferEPviNS_16CFrameDumpReplay15TDumpReplayTypeE
shim__ZN7android10CFrameDump10dumpBufferEPviNS_16CFrameDumpReplay15TDumpReplayTypeE:
bl _ZN7android10CFrameDump10dumpBufferEPviNS_16CFrameDumpReplay15TDumpReplayTypeE

.globl shim__ZN7android10CFrameDump10dumpBufferEPvNS_16CFrameDumpReplay15TDumpReplayTypeE
shim__ZN7android10CFrameDump10dumpBufferEPvNS_16CFrameDumpReplay15TDumpReplayTypeE:
bl _ZN7android10CFrameDump10dumpBufferEPvNS_16CFrameDumpReplay15TDumpReplayTypeE

.globl shim__ZN7android10CFrameDump9startDumpENS_16CFrameDumpReplay15TDumpReplayTypeEiiNS1_9TColorFmtEPNS_9STECameraEiP10MMHwBuffer
shim__ZN7android10CFrameDump9startDumpENS_16CFrameDumpReplay15TDumpReplayTypeEiiNS1_9TColorFmtEPNS_9STECameraEiP10MMHwBuffer:
bl _ZN7android10CFrameDump9startDumpENS_16CFrameDumpReplay15TDumpReplayTypeEiiNS1_9TColorFmtEPNS_9STECameraEiP10MMHwBuffer

.globl shim__ZN7android10CFrameDump8stopDumpENS_16CFrameDumpReplay15TDumpReplayTypeE
shim__ZN7android10CFrameDump8stopDumpENS_16CFrameDumpReplay15TDumpReplayTypeE:
bl _ZN7android10CFrameDump8stopDumpENS_16CFrameDumpReplay15TDumpReplayTypeE

.globl shim__ZN7android12CFrameReplayD1Ev
shim__ZN7android12CFrameReplayD1Ev:
bl _ZN7android12CFrameReplayD1Ev

.globl shim__ZN7android12CFrameReplayD0Ev
shim__ZN7android12CFrameReplayD0Ev:
bl _ZN7android12CFrameReplayD0Ev

.globl shim__ZN7android12CFrameReplayC1Ev
shim__ZN7android12CFrameReplayC1Ev:
bl _ZN7android12CFrameReplayC1Ev

.globl shim__ZN7android12CFrameReplay12replayBufferEPviNS_16CFrameDumpReplay15TDumpReplayTypeE
shim__ZN7android12CFrameReplay12replayBufferEPviNS_16CFrameDumpReplay15TDumpReplayTypeE:
bl _ZN7android12CFrameReplay12replayBufferEPviNS_16CFrameDumpReplay15TDumpReplayTypeE

.globl shim__ZN7android12CFrameReplay12replayBufferEPvNS_16CFrameDumpReplay15TDumpReplayTypeE
shim__ZN7android12CFrameReplay12replayBufferEPvNS_16CFrameDumpReplay15TDumpReplayTypeE:
bl _ZN7android12CFrameReplay12replayBufferEPvNS_16CFrameDumpReplay15TDumpReplayTypeE

.globl shim__ZN7android12CFrameReplay11startReplayENS_16CFrameDumpReplay15TDumpReplayTypeEiiNS1_9TColorFmtEPNS_9STECameraEiP10MMHwBuffer
shim__ZN7android12CFrameReplay11startReplayENS_16CFrameDumpReplay15TDumpReplayTypeEiiNS1_9TColorFmtEPNS_9STECameraEiP10MMHwBuffer:
bl _ZN7android12CFrameReplay11startReplayENS_16CFrameDumpReplay15TDumpReplayTypeEiiNS1_9TColorFmtEPNS_9STECameraEiP10MMHwBuffer

.globl shim__ZN7android12CFrameReplay10stopReplayENS_16CFrameDumpReplay15TDumpReplayTypeE
shim__ZN7android12CFrameReplay10stopReplayENS_16CFrameDumpReplay15TDumpReplayTypeE:
bl _ZN7android12CFrameReplay10stopReplayENS_16CFrameDumpReplay15TDumpReplayTypeE

.globl shim__ZN7android11PerfManagerC1Ev
shim__ZN7android11PerfManagerC1Ev:
bl _ZN7android11PerfManagerC1Ev

.globl shim__ZN7android11PerfManager5closeEv
shim__ZN7android11PerfManager5closeEv:
bl _ZN7android11PerfManager5closeEv

.globl shim__ZN7android11PerfManagerD1Ev
shim__ZN7android11PerfManagerD1Ev:
bl _ZN7android11PerfManagerD1Ev

.globl shim__ZN7android11PerfManager11createTimerEv
shim__ZN7android11PerfManager11createTimerEv:
bl _ZN7android11PerfManager11createTimerEv

.globl shim__ZN7android11PerfManager7connectEv
shim__ZN7android11PerfManager7connectEv:
bl _ZN7android11PerfManager7connectEv

.globl shim__ZN7android11PerfManager4nameENS0_5TTypeE
shim__ZN7android11PerfManager4nameENS0_5TTypeE:
bl _ZN7android11PerfManager4nameENS0_5TTypeE

.globl shim__ZN7android19SystemTimePerfTimer11elapsedTimeEv
shim__ZN7android19SystemTimePerfTimer11elapsedTimeEv:
bl _ZN7android19SystemTimePerfTimer11elapsedTimeEv

.globl shim__ZN7android22DurationTimerPerfTimer11elapsedTimeEv
shim__ZN7android22DurationTimerPerfTimer11elapsedTimeEv:
bl _ZN7android22DurationTimerPerfTimer11elapsedTimeEv

.globl shim__ZN7android19SystemTimePerfTimer4initEv
shim__ZN7android19SystemTimePerfTimer4initEv:
bl _ZN7android19SystemTimePerfTimer4initEv

.globl shim__ZN7android22DurationTimerPerfTimer4initEv
shim__ZN7android22DurationTimerPerfTimer4initEv:
bl _ZN7android22DurationTimerPerfTimer4initEv

.globl shim__ZN7android9CamBufferD1Ev
shim__ZN7android9CamBufferD1Ev:
bl _ZN7android9CamBufferD1Ev

.globl shim__ZN7android9CamBuffer4baseEv
shim__ZN7android9CamBuffer4baseEv:
bl _ZN7android9CamBuffer4baseEv

.globl shim__ZN7android9CamBufferD0Ev
shim__ZN7android9CamBufferD0Ev:
bl _ZN7android9CamBufferD0Ev

.globl shim__ZN7android9CamBuffer7deallocEv
shim__ZN7android9CamBuffer7deallocEv:
bl _ZN7android9CamBuffer7deallocEv

.globl shim__ZN7android9CamBufferC1Ev
shim__ZN7android9CamBufferC1Ev:
bl _ZN7android9CamBufferC1Ev

.globl shim__ZN7android9CamBuffer5clearEv
shim__ZN7android9CamBuffer5clearEv:
bl _ZN7android9CamBuffer5clearEv

.globl shim__ZN7android9CamBuffer7reallocERKNS_2spINS_11IMemoryHeapEEElj
shim__ZN7android9CamBuffer7reallocERKNS_2spINS_11IMemoryHeapEEElj:
bl _ZN7android9CamBuffer7reallocERKNS_2spINS_11IMemoryHeapEEElj

.globl shim__ZN7android11CamSwBuffer5allocERKNS_2spINS_11IMemoryHeapEEElj
shim__ZN7android11CamSwBuffer5allocERKNS_2spINS_11IMemoryHeapEEElj:
bl _ZN7android11CamSwBuffer5allocERKNS_2spINS_11IMemoryHeapEEElj

.globl shim__ZN7android11CamSwBufferD1Ev
shim__ZN7android11CamSwBufferD1Ev:
bl _ZN7android11CamSwBufferD1Ev

.globl shim__ZN7android11CamSwBufferD0Ev
shim__ZN7android11CamSwBufferD0Ev:
bl _ZN7android11CamSwBufferD0Ev

.globl shim__ZN7android11CamSwBuffer7deallocEv
shim__ZN7android11CamSwBuffer7deallocEv:
bl _ZN7android11CamSwBuffer7deallocEv

.globl shim__ZN7android11CamSwBufferC1Ev
shim__ZN7android11CamSwBufferC1Ev:
bl _ZN7android11CamSwBufferC1Ev

.globl shim__ZN7android11CamHwBuffer5allocERKNS_2spINS_11IMemoryHeapEEElj
shim__ZN7android11CamHwBuffer5allocERKNS_2spINS_11IMemoryHeapEEElj:
bl _ZN7android11CamHwBuffer5allocERKNS_2spINS_11IMemoryHeapEEElj

.globl shim__ZN7android11CamHwBufferD1Ev
shim__ZN7android11CamHwBufferD1Ev:
bl _ZN7android11CamHwBufferD1Ev

.globl shim__ZN7android11CamHwBufferD0Ev
shim__ZN7android11CamHwBufferD0Ev:
bl _ZN7android11CamHwBufferD0Ev

.globl shim__ZN7android11CamHwBufferC1Ev
shim__ZN7android11CamHwBufferC1Ev:
bl _ZN7android11CamHwBufferC1Ev

.globl shim__ZN7android16CamServiceBuffer4baseEv
shim__ZN7android16CamServiceBuffer4baseEv:
bl _ZN7android16CamServiceBuffer4baseEv

.globl shim__ZN7android16CamServiceBufferD1Ev
shim__ZN7android16CamServiceBufferD1Ev:
bl _ZN7android16CamServiceBufferD1Ev

.globl shim__ZN7android16CamServiceBufferD0Ev
shim__ZN7android16CamServiceBufferD0Ev:
bl _ZN7android16CamServiceBufferD0Ev

.globl shim__ZN7android16CamServiceBuffer7deallocEv
shim__ZN7android16CamServiceBuffer7deallocEv:
bl _ZN7android16CamServiceBuffer7deallocEv

.globl shim__ZN7android16CamServiceBuffer5allocERKNS_2spINS_11IMemoryHeapEEElj
shim__ZN7android16CamServiceBuffer5allocERKNS_2spINS_11IMemoryHeapEEElj:
bl _ZN7android16CamServiceBuffer5allocERKNS_2spINS_11IMemoryHeapEEElj

.globl shim__ZN7android16CamServiceBufferC1ERPFP13camera_memoryijjPvEPS3_
shim__ZN7android16CamServiceBufferC1ERPFP13camera_memoryijjPvEPS3_:
bl _ZN7android16CamServiceBufferC1ERPFP13camera_memoryijjPvEPS3_

.globl shim__ZN7android13CamSwRoutines4initEv
shim__ZN7android13CamSwRoutines4initEv:
bl _ZN7android13CamSwRoutines4initEv

.globl shim__ZN7android13CamSwRoutines22UYVY422Itld_to_YUV420PEPhS1_mm
shim__ZN7android13CamSwRoutines22UYVY422Itld_to_YUV420PEPhS1_mm:
bl _ZN7android13CamSwRoutines22UYVY422Itld_to_YUV420PEPhS1_mm

.globl shim__ZN7android13CamSwRoutines28UYVY422Itld_to_YUV420SP_NV12EPhS1_mm
shim__ZN7android13CamSwRoutines28UYVY422Itld_to_YUV420SP_NV12EPhS1_mm:
bl _ZN7android13CamSwRoutines28UYVY422Itld_to_YUV420SP_NV12EPhS1_mm

.globl shim__ZN7android13CamSwRoutines28UYVY422Itld_to_YUV420SP_NV21EPhS1_mm
shim__ZN7android13CamSwRoutines28UYVY422Itld_to_YUV420SP_NV21EPhS1_mm:
bl _ZN7android13CamSwRoutines28UYVY422Itld_to_YUV420SP_NV21EPhS1_mm

.globl shim__ZN7android13CamSwRoutines17RGB565_to_YUV420PEPhS1_mm
shim__ZN7android13CamSwRoutines17RGB565_to_YUV420PEPhS1_mm:
bl _ZN7android13CamSwRoutines17RGB565_to_YUV420PEPhS1_mm

.globl shim__ZN7android13CamSwRoutines23RGB565_to_YUV420SP_NV12EPhS1_mm
shim__ZN7android13CamSwRoutines23RGB565_to_YUV420SP_NV12EPhS1_mm:
bl _ZN7android13CamSwRoutines23RGB565_to_YUV420SP_NV12EPhS1_mm

.globl shim__ZN7android13CamSwRoutines23RGB565_to_YUV420SP_NV21EPhS1_mm
shim__ZN7android13CamSwRoutines23RGB565_to_YUV420SP_NV21EPhS1_mm:
bl _ZN7android13CamSwRoutines23RGB565_to_YUV420SP_NV21EPhS1_mm

.globl shim__ZN7android13CamSwRoutines29YUV420MB_180_rotation_inplaceEPhS1_mm
shim__ZN7android13CamSwRoutines29YUV420MB_180_rotation_inplaceEPhS1_mm:
bl _ZN7android13CamSwRoutines29YUV420MB_180_rotation_inplaceEPhS1_mm

.globl shim__ZN7android13CamSwRoutines31UYVY422Itld_90_rotation_inplaceEPhS1_mm
shim__ZN7android13CamSwRoutines31UYVY422Itld_90_rotation_inplaceEPhS1_mm:
bl _ZN7android13CamSwRoutines31UYVY422Itld_90_rotation_inplaceEPhS1_mm

.globl shim__ZN7android13CamSwRoutines32UYVY422Itld_270_rotation_inplaceEPhS1_mm
shim__ZN7android13CamSwRoutines32UYVY422Itld_270_rotation_inplaceEPhS1_mm:
bl _ZN7android13CamSwRoutines32UYVY422Itld_270_rotation_inplaceEPhS1_mm

.globl shim__ZN7android9SteHwConvC1Eiii20OMX_COLOR_FORMATTYPEiiS1_
shim__ZN7android9SteHwConvC1Eiii20OMX_COLOR_FORMATTYPEiiS1_:
bl _ZN7android9SteHwConvC1Eiii20OMX_COLOR_FORMATTYPEiiS1_

.globl shim__ZN7android9SteHwConvD1Ev
shim__ZN7android9SteHwConvD1Ev:
bl _ZN7android9SteHwConvD1Ev

.globl shim__ZN7android9SteHwConv17calculateZoomRectEib
shim__ZN7android9SteHwConv17calculateZoomRectEib:
bl _ZN7android9SteHwConv17calculateZoomRectEib

.globl shim__ZN7android9SteHwConv9transformEiiiiii
shim__ZN7android9SteHwConv9transformEiiiiii:
bl _ZN7android9SteHwConv9transformEiiiiii

.globl shim__ZN7android9SteHwConv9transformENS_2spINS_10MemoryBaseEEES3_ii
shim__ZN7android9SteHwConv9transformENS_2spINS_10MemoryBaseEEES3_ii:
bl _ZN7android9SteHwConv9transformENS_2spINS_10MemoryBaseEEES3_ii

.globl shim__ZN7android16STECamMMHwBuffer4initEv
shim__ZN7android16STECamMMHwBuffer4initEv:
bl _ZN7android16STECamMMHwBuffer4initEv

.globl shim__ZN7android16STECamMMHwBuffer6deinitEv
shim__ZN7android16STECamMMHwBuffer6deinitEv:
bl _ZN7android16STECamMMHwBuffer6deinitEv

.globl shim__ZN7android16STECamMMHwBuffer12freeHwBufferEPNS_11OmxBuffInfoEb
shim__ZN7android16STECamMMHwBuffer12freeHwBufferEPNS_11OmxBuffInfoEb:
bl _ZN7android16STECamMMHwBuffer12freeHwBufferEPNS_11OmxBuffInfoEb

.globl shim__ZN7android16STECamMMHwBuffer19allocateMMNativeBufEPP14MMNativeBufferPv
shim__ZN7android16STECamMMHwBuffer19allocateMMNativeBufEPP14MMNativeBufferPv:
bl _ZN7android16STECamMMHwBuffer19allocateMMNativeBufEPP14MMNativeBufferPv

.globl shim__ZN7android2spINS_11IMemoryHeapEEC1INS_14MemoryHeapBaseEEERKNS0_IT_EE
shim__ZN7android2spINS_11IMemoryHeapEEC1INS_14MemoryHeapBaseEEERKNS0_IT_EE:
bl _ZN7android2spINS_11IMemoryHeapEEC1INS_14MemoryHeapBaseEEERKNS0_IT_EE

.globl shim__ZN7android16STECamMMHwBuffer16allocateHwBufferEmmbPNS_11OmxBuffInfoEiPNS_2spINS_14MemoryHeapBaseEEES2_i
shim__ZN7android16STECamMMHwBuffer16allocateHwBufferEmmbPNS_11OmxBuffInfoEiPNS_2spINS_14MemoryHeapBaseEEES2_i:
bl _ZN7android16STECamMMHwBuffer16allocateHwBufferEmmbPNS_11OmxBuffInfoEiPNS_2spINS_14MemoryHeapBaseEEES2_i

.globl shim__ZN10B2R2Utills29blt_fmt_from_omx_color_formatE20OMX_COLOR_FORMATTYPE
shim__ZN10B2R2Utills29blt_fmt_from_omx_color_formatE20OMX_COLOR_FORMATTYPE:
bl _ZN10B2R2Utills29blt_fmt_from_omx_color_formatE20OMX_COLOR_FORMATTYPE

.globl shim__ZN10B2R2Utills10align16bitEj
shim__ZN10B2R2Utills10align16bitEj:
bl _ZN10B2R2Utills10align16bitEj

.globl shim__ZN10B2R2Utills7processEPNS_10TImageDataES1_PNS_5TRectEi
shim__ZN10B2R2Utills7processEPNS_10TImageDataES1_PNS_5TRectEi:
bl _ZN10B2R2Utills7processEPNS_10TImageDataES1_PNS_5TRectEi

.globl shim__ZN10B2R2Utills11crop_resizeEPNS_10TImageDataES1_PNS_5TRectE
shim__ZN10B2R2Utills11crop_resizeEPNS_10TImageDataES1_PNS_5TRectE:
bl _ZN10B2R2Utills11crop_resizeEPNS_10TImageDataES1_PNS_5TRectE

.globl shim__ZN10B2R2Utills6resizeEPNS_10TImageDataES1_
shim__ZN10B2R2Utills6resizeEPNS_10TImageDataES1_:
bl _ZN10B2R2Utills6resizeEPNS_10TImageDataES1_

.globl shim__ZN10B2R2Utills4cropEPNS_10TImageDataES1_PNS_5TRectE
shim__ZN10B2R2Utills4cropEPNS_10TImageDataES1_PNS_5TRectE:
bl _ZN10B2R2Utills4cropEPNS_10TImageDataES1_PNS_5TRectE

.globl shim__ZN10B2R2Utills11crop_resizeEPNS_10TImageDataES1_S1_PNS_5TRectEib
shim__ZN10B2R2Utills11crop_resizeEPNS_10TImageDataES1_S1_PNS_5TRectEib:
bl _ZN10B2R2Utills11crop_resizeEPNS_10TImageDataES1_S1_PNS_5TRectEib

.globl shim__ZN7android14EnableDataFlow12handleBufferEmm
shim__ZN7android14EnableDataFlow12handleBufferEmm:
bl _ZN7android14EnableDataFlow12handleBufferEmm

.globl shim__ZN7android20ArmIVEmptyBufferDoneEPvS0_P20OMX_BUFFERHEADERTYPE
shim__ZN7android20ArmIVEmptyBufferDoneEPvS0_P20OMX_BUFFERHEADERTYPE:
bl _ZN7android20ArmIVEmptyBufferDoneEPvS0_P20OMX_BUFFERHEADERTYPE

.globl shim__ZN7android15DisableDataFlow11handleEventEv
shim__ZN7android15DisableDataFlow11handleEventEv:
bl _ZN7android15DisableDataFlow11handleEventEv

.globl shim__ZN7android15DisableDataFlow12handleBufferEmm
shim__ZN7android15DisableDataFlow12handleBufferEmm:
bl _ZN7android15DisableDataFlow12handleBufferEmm

.globl shim__ZN7android15DisableDataFlow7releaseEv
shim__ZN7android15DisableDataFlow7releaseEv:
bl _ZN7android15DisableDataFlow7releaseEv

.globl shim__ZN7android15DisableDataFlow14updateSnapShotERKNS_9ImageInfoE
shim__ZN7android15DisableDataFlow14updateSnapShotERKNS_9ImageInfoE:
bl _ZN7android15DisableDataFlow14updateSnapShotERKNS_9ImageInfoE

.globl shim__ZN7android15DisableDataFlow9configureERKNS_9ImageInfoES3_
shim__ZN7android15DisableDataFlow9configureERKNS_9ImageInfoES3_:
bl _ZN7android15DisableDataFlow9configureERKNS_9ImageInfoES3_

.globl shim__ZN7android14EnableDataFlow11handleEventEv
shim__ZN7android14EnableDataFlow11handleEventEv:
bl _ZN7android14EnableDataFlow11handleEventEv

.globl shim__ZN7android18SWJpegEventHandlerEPvS0_13OMX_EVENTTYPEmmS0_
shim__ZN7android18SWJpegEventHandlerEPvS0_13OMX_EVENTTYPEmmS0_:
bl _ZN7android18SWJpegEventHandlerEPvS0_13OMX_EVENTTYPEmmS0_

.globl shim__ZN7android17ArmIvEventHandlerEPvS0_13OMX_EVENTTYPEmmS0_
shim__ZN7android17ArmIvEventHandlerEPvS0_13OMX_EVENTTYPEmmS0_:
bl _ZN7android17ArmIvEventHandlerEPvS0_13OMX_EVENTTYPEmmS0_

.globl shim__ZN7android16ThumbnailHandlerD1Ev
shim__ZN7android16ThumbnailHandlerD1Ev:
bl _ZN7android16ThumbnailHandlerD1Ev

.globl shim__ZN7android15DisableDataFlowD1Ev
shim__ZN7android15DisableDataFlowD1Ev:
bl _ZN7android15DisableDataFlowD1Ev

.globl shim__ZN7android15DisableDataFlowD0Ev
shim__ZN7android15DisableDataFlowD0Ev:
bl _ZN7android15DisableDataFlowD0Ev

.globl shim__ZN7android14EnableDataFlowD1Ev
shim__ZN7android14EnableDataFlowD1Ev:
bl _ZN7android14EnableDataFlowD1Ev

.globl shim__ZN7android14EnableDataFlowD0Ev
shim__ZN7android14EnableDataFlowD0Ev:
bl _ZN7android14EnableDataFlowD0Ev

.globl shim__ZN7android16ThumbnailHandlerD0Ev
shim__ZN7android16ThumbnailHandlerD0Ev:
bl _ZN7android16ThumbnailHandlerD0Ev

.globl shim__ZN7android14EnableDataFlowC1ERPvRNS_11OmxBuffInfoER36OMX_OSI_CONFIG_SHARED_CHUNK_METADATARNS_8OmxUtilsERK20OMX_COLOR_FORMATTYPERNS_11PerfManagerER5sem_t
shim__ZN7android14EnableDataFlowC1ERPvRNS_11OmxBuffInfoER36OMX_OSI_CONFIG_SHARED_CHUNK_METADATARNS_8OmxUtilsERK20OMX_COLOR_FORMATTYPERNS_11PerfManagerER5sem_t:
bl _ZN7android14EnableDataFlowC1ERPvRNS_11OmxBuffInfoER36OMX_OSI_CONFIG_SHARED_CHUNK_METADATARNS_8OmxUtilsERK20OMX_COLOR_FORMATTYPERNS_11PerfManagerER5sem_t

.globl shim__ZN7android14EnableDataFlow11freeHandlesEv
shim__ZN7android14EnableDataFlow11freeHandlesEv:
bl _ZN7android14EnableDataFlow11freeHandlesEv

.globl shim__ZN7android14EnableDataFlow11freeBuffersEv
shim__ZN7android14EnableDataFlow11freeBuffersEv:
bl _ZN7android14EnableDataFlow11freeBuffersEv

.globl shim__ZN7android14EnableDataFlow15resetComponentsEv
shim__ZN7android14EnableDataFlow15resetComponentsEv:
bl _ZN7android14EnableDataFlow15resetComponentsEv

.globl shim__ZN7android14EnableDataFlow13setAutoRotateE8OMX_BOOL
shim__ZN7android14EnableDataFlow13setAutoRotateE8OMX_BOOL:
bl _ZN7android14EnableDataFlow13setAutoRotateE8OMX_BOOL

.globl shim__ZN7android14EnableDataFlow24sendComponentToExecutingEv
shim__ZN7android14EnableDataFlow24sendComponentToExecutingEv:
bl _ZN7android14EnableDataFlow24sendComponentToExecutingEv

.globl shim__ZN7android14EnableDataFlow14setupTunnelingEv
shim__ZN7android14EnableDataFlow14setupTunnelingEv:
bl _ZN7android14EnableDataFlow14setupTunnelingEv

.globl shim__ZN7android14EnableDataFlow11configPortsERKNS_9ImageInfoES3_
shim__ZN7android14EnableDataFlow11configPortsERKNS_9ImageInfoES3_:
bl _ZN7android14EnableDataFlow11configPortsERKNS_9ImageInfoES3_

.globl shim__ZN7android14EnableDataFlow12disablePortsEv
shim__ZN7android14EnableDataFlow12disablePortsEv:
bl _ZN7android14EnableDataFlow12disablePortsEv

.globl shim__ZN7android14EnableDataFlow7releaseEv
shim__ZN7android14EnableDataFlow7releaseEv:
bl _ZN7android14EnableDataFlow7releaseEv

.globl shim__ZN7android14EnableDataFlow4initERKNS_9ImageInfoES3_
shim__ZN7android14EnableDataFlow4initERKNS_9ImageInfoES3_:
bl _ZN7android14EnableDataFlow4initERKNS_9ImageInfoES3_

.globl shim__ZN7android14EnableDataFlow9useBufferEv
shim__ZN7android14EnableDataFlow9useBufferEv:
bl _ZN7android14EnableDataFlow9useBufferEv

.globl shim__ZN7android14EnableDataFlow11enablePortsEv
shim__ZN7android14EnableDataFlow11enablePortsEv:
bl _ZN7android14EnableDataFlow11enablePortsEv

.globl shim__ZN7android14EnableDataFlow9configureERKNS_9ImageInfoES3_
shim__ZN7android14EnableDataFlow9configureERKNS_9ImageInfoES3_:
bl _ZN7android14EnableDataFlow9configureERKNS_9ImageInfoES3_

.globl shim__ZN7android14EnableDataFlow14updateSnapShotERKNS_9ImageInfoE
shim__ZN7android14EnableDataFlow14updateSnapShotERKNS_9ImageInfoE:
bl _ZN7android14EnableDataFlow14updateSnapShotERKNS_9ImageInfoE

.globl shim__ZN7android15ImageRotHandler28doUpdateExtraDataOrientationEP33OMX_SYMBIAN_CAPTUREPARAMETERSTYPEPc
shim__ZN7android15ImageRotHandler28doUpdateExtraDataOrientationEP33OMX_SYMBIAN_CAPTUREPARAMETERSTYPEPc:
bl _ZN7android15ImageRotHandler28doUpdateExtraDataOrientationEP33OMX_SYMBIAN_CAPTUREPARAMETERSTYPEPc

.globl shim__ZN7android15ImageRotHandler23setupRotationProcessingEv
shim__ZN7android15ImageRotHandler23setupRotationProcessingEv:
bl _ZN7android15ImageRotHandler23setupRotationProcessingEv

.globl shim__ZN7android15ImageRotHandler12handleBufferEPK20OMX_BUFFERHEADERTYPE
shim__ZN7android15ImageRotHandler12handleBufferEPK20OMX_BUFFERHEADERTYPE:
bl _ZN7android15ImageRotHandler12handleBufferEPK20OMX_BUFFERHEADERTYPE

.globl shim__ZN7android15ImageRotHandler15doConfigurationEib
shim__ZN7android15ImageRotHandler15doConfigurationEib:
bl _ZN7android15ImageRotHandler15doConfigurationEib

.globl shim__ZN7android15ImageRotHandler16configAutoRotateEv
shim__ZN7android15ImageRotHandler16configAutoRotateEv:
bl _ZN7android15ImageRotHandler16configAutoRotateEv

.globl shim__ZN7android15ImageRotHandlerD1Ev
shim__ZN7android15ImageRotHandlerD1Ev:
bl _ZN7android15ImageRotHandlerD1Ev

.globl shim__ZN7android15ImageRotHandlerD0Ev
shim__ZN7android15ImageRotHandlerD0Ev:
bl _ZN7android15ImageRotHandlerD0Ev

.globl shim__ZN7android16DeviceSwRotation23setupRotationProcessingEv
shim__ZN7android16DeviceSwRotation23setupRotationProcessingEv:
bl _ZN7android16DeviceSwRotation23setupRotationProcessingEv

.globl shim__ZN7android16DeviceHwRotation23setupRotationProcessingEv
shim__ZN7android16DeviceHwRotation23setupRotationProcessingEv:
bl _ZN7android16DeviceHwRotation23setupRotationProcessingEv

.globl shim__ZN7android12ExifRotation23setupRotationProcessingEv
shim__ZN7android12ExifRotation23setupRotationProcessingEv:
bl _ZN7android12ExifRotation23setupRotationProcessingEv

.globl shim__ZN7android12ExifRotation15doConfigurationEib
shim__ZN7android12ExifRotation15doConfigurationEib:
bl _ZN7android12ExifRotation15doConfigurationEib

.globl shim__ZN7android14DeviceRotation15doConfigurationEib
shim__ZN7android14DeviceRotation15doConfigurationEib:
bl _ZN7android14DeviceRotation15doConfigurationEib

.globl shim__ZN7android15ImageRotHandlerC1EPNS_9STECameraE
shim__ZN7android15ImageRotHandlerC1EPNS_9STECameraE:
bl _ZN7android15ImageRotHandlerC1EPNS_9STECameraE

.globl shim__ZN7android15ImageRotHandler26updateExtraDataOrientationEPK20OMX_BUFFERHEADERTYPE
shim__ZN7android15ImageRotHandler26updateExtraDataOrientationEPK20OMX_BUFFERHEADERTYPE:
bl _ZN7android15ImageRotHandler26updateExtraDataOrientationEPK20OMX_BUFFERHEADERTYPE

.globl shim__ZN7android16DeviceSwRotation12handleBufferEPK20OMX_BUFFERHEADERTYPE
shim__ZN7android16DeviceSwRotation12handleBufferEPK20OMX_BUFFERHEADERTYPE:
bl _ZN7android16DeviceSwRotation12handleBufferEPK20OMX_BUFFERHEADERTYPE

.globl shim__ZN7android12ExifRotation12handleBufferEPK20OMX_BUFFERHEADERTYPE
shim__ZN7android12ExifRotation12handleBufferEPK20OMX_BUFFERHEADERTYPE:
bl _ZN7android12ExifRotation12handleBufferEPK20OMX_BUFFERHEADERTYPE

.globl shim__ZN7android15ImageRotHandler27updateExifParamsOrientationEPci
shim__ZN7android15ImageRotHandler27updateExifParamsOrientationEPci:
bl _ZN7android15ImageRotHandler27updateExifParamsOrientationEPci

.globl shim__ZN7android16DeviceSwRotation28doUpdateExtraDataOrientationEP33OMX_SYMBIAN_CAPTUREPARAMETERSTYPEPc
shim__ZN7android16DeviceSwRotation28doUpdateExtraDataOrientationEP33OMX_SYMBIAN_CAPTUREPARAMETERSTYPEPc:
bl _ZN7android16DeviceSwRotation28doUpdateExtraDataOrientationEP33OMX_SYMBIAN_CAPTUREPARAMETERSTYPEPc

.globl shim__ZN7android12ExifRotation28doUpdateExtraDataOrientationEP33OMX_SYMBIAN_CAPTUREPARAMETERSTYPEPc
shim__ZN7android12ExifRotation28doUpdateExtraDataOrientationEP33OMX_SYMBIAN_CAPTUREPARAMETERSTYPEPc:
bl _ZN7android12ExifRotation28doUpdateExtraDataOrientationEP33OMX_SYMBIAN_CAPTUREPARAMETERSTYPEPc

.globl shim__ZN7android15ImageRotHandler13setAutoRotateEPvi8OMX_BOOL
shim__ZN7android15ImageRotHandler13setAutoRotateEPvi8OMX_BOOL:
bl _ZN7android15ImageRotHandler13setAutoRotateEPvi8OMX_BOOL

.globl shim__ZN7android15ImageRotHandler18doConfigAutoRotateE8OMX_BOOL
shim__ZN7android15ImageRotHandler18doConfigAutoRotateE8OMX_BOOL:
bl _ZN7android15ImageRotHandler18doConfigAutoRotateE8OMX_BOOL

.globl shim__ZN7android14DeviceRotation16configAutoRotateEv
shim__ZN7android14DeviceRotation16configAutoRotateEv:
bl _ZN7android14DeviceRotation16configAutoRotateEv

.globl shim__ZN7android14DeviceRotationC1EPNS_9STECameraE
shim__ZN7android14DeviceRotationC1EPNS_9STECameraE:
bl _ZN7android14DeviceRotationC1EPNS_9STECameraE

.globl shim__ZN7android12ExifRotationC1EPNS_9STECameraE
shim__ZN7android12ExifRotationC1EPNS_9STECameraE:
bl _ZN7android12ExifRotationC1EPNS_9STECameraE

.globl shim__ZN7android16DeviceHwRotationC1EPNS_9STECameraE
shim__ZN7android16DeviceHwRotationC1EPNS_9STECameraE:
bl _ZN7android16DeviceHwRotationC1EPNS_9STECameraE

.globl shim__ZN7android16DeviceSwRotationC1EPNS_9STECameraE
shim__ZN7android16DeviceSwRotationC1EPNS_9STECameraE:
bl _ZN7android16DeviceSwRotationC1EPNS_9STECameraE

.globl shim__ZN7android26ContinuousAutoFocusHandler20moveLensToDefaultPosEv
shim__ZN7android26ContinuousAutoFocusHandler20moveLensToDefaultPosEv:
bl _ZN7android26ContinuousAutoFocusHandler20moveLensToDefaultPosEv

.globl shim__ZN7android26ContinuousAutoFocusHandler17setupFocusControlER33OMX_IMAGE_CONFIG_FOCUSCONTROLTYPE
shim__ZN7android26ContinuousAutoFocusHandler17setupFocusControlER33OMX_IMAGE_CONFIG_FOCUSCONTROLTYPE:
bl _ZN7android26ContinuousAutoFocusHandler17setupFocusControlER33OMX_IMAGE_CONFIG_FOCUSCONTROLTYPE

.globl shim__ZN7android26ContinuousAutoFocusHandler11getLockTypeEv
shim__ZN7android26ContinuousAutoFocusHandler11getLockTypeEv:
bl _ZN7android26ContinuousAutoFocusHandler11getLockTypeEv

.globl shim__ZN7android17FixedFocusHandler7doFocusEv
shim__ZN7android17FixedFocusHandler7doFocusEv:
bl _ZN7android17FixedFocusHandler7doFocusEv

.globl shim__ZN7android17FixedFocusHandler20moveLensToDefaultPosEv
shim__ZN7android17FixedFocusHandler20moveLensToDefaultPosEv:
bl _ZN7android17FixedFocusHandler20moveLensToDefaultPosEv

.globl shim__ZN7android17FixedFocusHandler17setupFocusControlER33OMX_IMAGE_CONFIG_FOCUSCONTROLTYPE
shim__ZN7android17FixedFocusHandler17setupFocusControlER33OMX_IMAGE_CONFIG_FOCUSCONTROLTYPE:
bl _ZN7android17FixedFocusHandler17setupFocusControlER33OMX_IMAGE_CONFIG_FOCUSCONTROLTYPE

.globl shim__ZN7android17FixedFocusHandler11getLockTypeEv
shim__ZN7android17FixedFocusHandler11getLockTypeEv:
bl _ZN7android17FixedFocusHandler11getLockTypeEv

.globl shim__ZN7android16AutoFocusHandler20moveLensToDefaultPosEv
shim__ZN7android16AutoFocusHandler20moveLensToDefaultPosEv:
bl _ZN7android16AutoFocusHandler20moveLensToDefaultPosEv

.globl shim__ZN7android16AutoFocusHandler17setupFocusControlER33OMX_IMAGE_CONFIG_FOCUSCONTROLTYPE
shim__ZN7android16AutoFocusHandler17setupFocusControlER33OMX_IMAGE_CONFIG_FOCUSCONTROLTYPE:
bl _ZN7android16AutoFocusHandler17setupFocusControlER33OMX_IMAGE_CONFIG_FOCUSCONTROLTYPE

.globl shim__ZN7android16AutoFocusHandler11getLockTypeEv
shim__ZN7android16AutoFocusHandler11getLockTypeEv:
bl _ZN7android16AutoFocusHandler11getLockTypeEv

.globl shim__ZN7android12FocusHandlerD1Ev
shim__ZN7android12FocusHandlerD1Ev:
bl _ZN7android12FocusHandlerD1Ev

.globl shim__ZN7android12FocusHandlerD0Ev
shim__ZN7android12FocusHandlerD0Ev:
bl _ZN7android12FocusHandlerD0Ev

.globl shim__ZN7android12FocusHandlerC1EPNS_9STECameraE
shim__ZN7android12FocusHandlerC1EPNS_9STECameraE:
bl _ZN7android12FocusHandlerC1EPNS_9STECameraE

.globl shim__ZN7android12FocusHandler17getFocusModeIndexEPKc
shim__ZN7android12FocusHandler17getFocusModeIndexEPKc:
bl _ZN7android12FocusHandler17getFocusModeIndexEPKc

.globl shim__ZN7android12FocusHandler14getFocusStatusEv
shim__ZN7android12FocusHandler14getFocusStatusEv:
bl _ZN7android12FocusHandler14getFocusStatusEv

.globl shim__ZN7android12FocusHandler13handleAFEventEv
shim__ZN7android12FocusHandler13handleAFEventEv:
bl _ZN7android12FocusHandler13handleAFEventEv

.globl shim__ZN7android16AutoFocusHandlerC1EPNS_9STECameraE
shim__ZN7android16AutoFocusHandlerC1EPNS_9STECameraE:
bl _ZN7android16AutoFocusHandlerC1EPNS_9STECameraE

.globl shim__ZN7android17FixedFocusHandlerC1EPNS_9STECameraE
shim__ZN7android17FixedFocusHandlerC1EPNS_9STECameraE:
bl _ZN7android17FixedFocusHandlerC1EPNS_9STECameraE

.globl shim__ZN7android26ContinuousAutoFocusHandlerC1EPNS_9STECameraE
shim__ZN7android26ContinuousAutoFocusHandlerC1EPNS_9STECameraE:
bl _ZN7android26ContinuousAutoFocusHandlerC1EPNS_9STECameraE

.globl shim__ZN7android17FixedFocusHandler10setUpFocusEPKc
shim__ZN7android17FixedFocusHandler10setUpFocusEPKc:
bl _ZN7android17FixedFocusHandler10setUpFocusEPKc

.globl shim__ZN7android12FocusHandler11cancelFocusEv
shim__ZN7android12FocusHandler11cancelFocusEv:
bl _ZN7android12FocusHandler11cancelFocusEv

.globl shim__ZN7android12FocusHandler7doFocusEv
shim__ZN7android12FocusHandler7doFocusEv:
bl _ZN7android12FocusHandler7doFocusEv

.globl shim__ZN7android12FocusHandler10setUpFocusEPKc
shim__ZN7android12FocusHandler10setUpFocusEPKc:
bl _ZN7android12FocusHandler10setUpFocusEPKc

.globl shim__ZN7android19STECameraDeviceBaseC1Ev
shim__ZN7android19STECameraDeviceBaseC1Ev:
bl _ZN7android19STECameraDeviceBaseC1Ev

.globl shim__ZN7android19STECameraDeviceBaseD0Ev
shim__ZN7android19STECameraDeviceBaseD0Ev:
bl _ZN7android19STECameraDeviceBaseD0Ev

.globl shim__ZN7android19STECameraDeviceBase18CreateCameraDeviceEPS0_
shim__ZN7android19STECameraDeviceBase18CreateCameraDeviceEPS0_:
bl _ZN7android19STECameraDeviceBase18CreateCameraDeviceEPS0_

.globl shim__ZN7android15STENativeWindow4initEiiii
shim__ZN7android15STENativeWindow4initEiiii:
bl _ZN7android15STENativeWindow4initEiiii

.globl shim__ZN7android15STENativeWindow7setCropEiiii
shim__ZN7android15STENativeWindow7setCropEiiii:
bl _ZN7android15STENativeWindow7setCropEiiii

.globl shim__ZN7android15STENativeWindow14setBufferCountEi
shim__ZN7android15STENativeWindow14setBufferCountEi:
bl _ZN7android15STENativeWindow14setBufferCountEi

.globl shim__ZN7android15STENativeWindow13dequeueBufferEPPPK13native_handlePi
shim__ZN7android15STENativeWindow13dequeueBufferEPPPK13native_handlePi:
bl _ZN7android15STENativeWindow13dequeueBufferEPPPK13native_handlePi

.globl shim__ZN7android15STENativeWindow13enqueueBufferERPK13native_handle
shim__ZN7android15STENativeWindow13enqueueBufferERPK13native_handle:
bl _ZN7android15STENativeWindow13enqueueBufferERPK13native_handle

.globl shim__ZN7android15STENativeWindow12cancelBufferERPK13native_handle
shim__ZN7android15STENativeWindow12cancelBufferERPK13native_handle:
bl _ZN7android15STENativeWindow12cancelBufferERPK13native_handle

.globl shim__ZN7android15STENativeWindow10lockBufferERPK13native_handle
shim__ZN7android15STENativeWindow10lockBufferERPK13native_handle:
bl _ZN7android15STENativeWindow10lockBufferERPK13native_handle

.globl shim__ZN7android14MyNativeWindowC1EPFP14MMNativeBufferPvEPFvS2_E
shim__ZN7android14MyNativeWindowC1EPFP14MMNativeBufferPvEPFvS2_E:
bl _ZN7android14MyNativeWindowC1EPFP14MMNativeBufferPvEPFvS2_E

.globl shim__ZN7android14MyNativeWindow30fetchNBufferFromNativeWindow_lEv
shim__ZN7android14MyNativeWindow30fetchNBufferFromNativeWindow_lEv:
bl _ZN7android14MyNativeWindow30fetchNBufferFromNativeWindow_lEv

.globl shim__ZN7android14MyNativeWindow25setupNBuffersForPreview_lEv
shim__ZN7android14MyNativeWindow25setupNBuffersForPreview_lEv:
bl _ZN7android14MyNativeWindow25setupNBuffersForPreview_lEv

.globl shim__ZN7android14MyNativeWindow4initEP18preview_stream_opsPFP13camera_memoryijjPvEiiii
shim__ZN7android14MyNativeWindow4initEP18preview_stream_opsPFP13camera_memoryijjPvEiiii:
bl _ZN7android14MyNativeWindow4initEP18preview_stream_opsPFP13camera_memoryijjPvEiiii

.globl shim__ZN7android15STEExtIspCamera28initPrimaryDefaultParametersEv
shim__ZN7android15STEExtIspCamera28initPrimaryDefaultParametersEv:
bl _ZN7android15STEExtIspCamera28initPrimaryDefaultParametersEv

.globl shim__ZN7android15STEExtIspCamera30initSecondaryDefaultParametersEv
shim__ZN7android15STEExtIspCamera30initSecondaryDefaultParametersEv:
bl _ZN7android15STEExtIspCamera30initSecondaryDefaultParametersEv

.globl shim__ZN7android15STEExtIspCamera4initEv
shim__ZN7android15STEExtIspCamera4initEv:
bl _ZN7android15STEExtIspCamera4initEv

.globl shim__ZN7android15STEExtIspCamera20CameraFillBufferDoneEP20OMX_BUFFERHEADERTYPE
shim__ZN7android15STEExtIspCamera20CameraFillBufferDoneEP20OMX_BUFFERHEADERTYPE:
bl _ZN7android15STEExtIspCamera20CameraFillBufferDoneEP20OMX_BUFFERHEADERTYPE

.globl shim__ZN7android15STEExtIspCamera24supplyRecordBuffersToCamEv
shim__ZN7android15STEExtIspCamera24supplyRecordBuffersToCamEv:
bl _ZN7android15STEExtIspCamera24supplyRecordBuffersToCamEv

.globl shim__ZN7android15STEExtIspCamera18setupVideoMetadataERNS_11buffer_infoE
shim__ZN7android15STEExtIspCamera18setupVideoMetadataERNS_11buffer_infoE:
bl _ZN7android15STEExtIspCamera18setupVideoMetadataERNS_11buffer_infoE

.globl shim__ZN7android15STEExtIspCamera22setupZoomVideoMetadataERNS_11buffer_infoE
shim__ZN7android15STEExtIspCamera22setupZoomVideoMetadataERNS_11buffer_infoE:
bl _ZN7android15STEExtIspCamera22setupZoomVideoMetadataERNS_11buffer_infoE

.globl shim__ZN7android15STEExtIspCamera21UnConfigureSnapRecordEv
shim__ZN7android15STEExtIspCamera21UnConfigureSnapRecordEv:
bl _ZN7android15STEExtIspCamera21UnConfigureSnapRecordEv

.globl shim__ZN7android15STEExtIspCamera24FreeZoomRecordHeapLockedEv
shim__ZN7android15STEExtIspCamera24FreeZoomRecordHeapLockedEv:
bl _ZN7android15STEExtIspCamera24FreeZoomRecordHeapLockedEv

.globl shim__ZN7android15STEExtIspCamera20FreeRecordHeapLockedEv
shim__ZN7android15STEExtIspCamera20FreeRecordHeapLockedEv:
bl _ZN7android15STEExtIspCamera20FreeRecordHeapLockedEv

.globl shim__ZN7android15STEExtIspCamera23FreeZoomStillHeapLockedEv
shim__ZN7android15STEExtIspCamera23FreeZoomStillHeapLockedEv:
bl _ZN7android15STEExtIspCamera23FreeZoomStillHeapLockedEv

.globl shim__ZN7android15STEExtIspCamera15SetPropContrastEv
shim__ZN7android15STEExtIspCamera15SetPropContrastEv:
bl _ZN7android15STEExtIspCamera15SetPropContrastEv

.globl shim__ZN7android15STEExtIspCamera19SetPropWhiteBalanceEv
shim__ZN7android15STEExtIspCamera19SetPropWhiteBalanceEv:
bl _ZN7android15STEExtIspCamera19SetPropWhiteBalanceEv

.globl shim__ZN7android15STEExtIspCamera12SetPropFocusEv
shim__ZN7android15STEExtIspCamera12SetPropFocusEv:
bl _ZN7android15STEExtIspCamera12SetPropFocusEv

.globl shim__ZN7android15STEExtIspCamera21SetPropFlickerRemovalEv
shim__ZN7android15STEExtIspCamera21SetPropFlickerRemovalEv:
bl _ZN7android15STEExtIspCamera21SetPropFlickerRemovalEv

.globl shim__ZN7android15STEExtIspCamera17SetPropSceneModesEv
shim__ZN7android15STEExtIspCamera17SetPropSceneModesEv:
bl _ZN7android15STEExtIspCamera17SetPropSceneModesEv

.globl shim__ZN7android15STEExtIspCamera12SetPropFlashEv
shim__ZN7android15STEExtIspCamera12SetPropFlashEv:
bl _ZN7android15STEExtIspCamera12SetPropFlashEv

.globl shim__ZN7android15STEExtIspCamera13SetPropAELockEv
shim__ZN7android15STEExtIspCamera13SetPropAELockEv:
bl _ZN7android15STEExtIspCamera13SetPropAELockEv

.globl shim__ZN7android15STEExtIspCamera14SetPropAWBLockEv
shim__ZN7android15STEExtIspCamera14SetPropAWBLockEv:
bl _ZN7android15STEExtIspCamera14SetPropAWBLockEv

.globl shim__ZN7android15STEExtIspCamera13SetPropEffectEv
shim__ZN7android15STEExtIspCamera13SetPropEffectEv:
bl _ZN7android15STEExtIspCamera13SetPropEffectEv

.globl shim__ZN7android15STEExtIspCamera15SetPropExposureEv
shim__ZN7android15STEExtIspCamera15SetPropExposureEv:
bl _ZN7android15STEExtIspCamera15SetPropExposureEv

.globl shim__ZN7android15STEExtIspCamera11SetPropZoomEv
shim__ZN7android15STEExtIspCamera11SetPropZoomEv:
bl _ZN7android15STEExtIspCamera11SetPropZoomEv

.globl shim__ZN7android15STEExtIspCamera17getLensParametersEv
shim__ZN7android15STEExtIspCamera17getLensParametersEv:
bl _ZN7android15STEExtIspCamera17getLensParametersEv

.globl shim__ZN7android15STEExtIspCamera15setMakeAndModelEv
shim__ZN7android15STEExtIspCamera15setMakeAndModelEv:
bl _ZN7android15STEExtIspCamera15setMakeAndModelEv

.globl shim__ZN7android15STEExtIspCamera18SetSoftwareVersionEv
shim__ZN7android15STEExtIspCamera18SetSoftwareVersionEv:
bl _ZN7android15STEExtIspCamera18SetSoftwareVersionEv

.globl shim__ZN7android15STEExtIspCamera14setOrientationEv
shim__ZN7android15STEExtIspCamera14setOrientationEv:
bl _ZN7android15STEExtIspCamera14setOrientationEv

.globl shim__ZN7android15STEExtIspCamera15dispatchRequestEiPvb
shim__ZN7android15STEExtIspCamera15dispatchRequestEiPvb:
bl _ZN7android15STEExtIspCamera15dispatchRequestEiPvb

.globl shim__ZN7android15STEExtIspCamera20dispatchNotificationEiii
shim__ZN7android15STEExtIspCamera20dispatchNotificationEiii:
bl _ZN7android15STEExtIspCamera20dispatchNotificationEiii

.globl shim__ZN7android15STEExtIspCamera13dispatchErrorEii
shim__ZN7android15STEExtIspCamera13dispatchErrorEii:
bl _ZN7android15STEExtIspCamera13dispatchErrorEii

.globl shim__ZN7android15STEExtIspCamera20isFrameRateSupportedEPKci
shim__ZN7android15STEExtIspCamera20isFrameRateSupportedEPKci:
bl _ZN7android15STEExtIspCamera20isFrameRateSupportedEPKci

.globl shim__ZN7android15STEExtIspCamera15updateFrameRateERiS1_S1_
shim__ZN7android15STEExtIspCamera15updateFrameRateERiS1_S1_:
bl _ZN7android15STEExtIspCamera15updateFrameRateERiS1_S1_

.globl shim__ZN7android15STEExtIspCamera18setPreviewFpsRangeEii
shim__ZN7android15STEExtIspCamera18setPreviewFpsRangeEii:
bl _ZN7android15STEExtIspCamera18setPreviewFpsRangeEii

.globl shim__ZN7android15STEExtIspCamera17GetExtradataFieldEP20OMX_BUFFERHEADERTYPEP35OMX_SYMBIAN_CONFIG_EXIFSETTINGSTYPE
shim__ZN7android15STEExtIspCamera17GetExtradataFieldEP20OMX_BUFFERHEADERTYPEP35OMX_SYMBIAN_CONFIG_EXIFSETTINGSTYPE:
bl _ZN7android15STEExtIspCamera17GetExtradataFieldEP20OMX_BUFFERHEADERTYPEP35OMX_SYMBIAN_CONFIG_EXIFSETTINGSTYPE

.globl shim__ZN7android15STEExtIspCamera12SetFrameRateEv
shim__ZN7android15STEExtIspCamera12SetFrameRateEv:
bl _ZN7android15STEExtIspCamera12SetFrameRateEv

.globl shim__ZN7android15STEExtIspCamera12SetPropTorchEb
shim__ZN7android15STEExtIspCamera12SetPropTorchEb:
bl _ZN7android15STEExtIspCamera12SetPropTorchEb

.globl shim__ZN7android15STEExtIspCamera14SetPropCamModeEv
shim__ZN7android15STEExtIspCamera14SetPropCamModeEv:
bl _ZN7android15STEExtIspCamera14SetPropCamModeEv

.globl shim__ZN7android15STEExtIspCamera17SetPropFocusRangeEv
shim__ZN7android15STEExtIspCamera17SetPropFocusRangeEv:
bl _ZN7android15STEExtIspCamera17SetPropFocusRangeEv

.globl shim__ZN7android15STEExtIspCamera10SetPropCAFEv
shim__ZN7android15STEExtIspCamera10SetPropCAFEv:
bl _ZN7android15STEExtIspCamera10SetPropCAFEv

.globl shim__ZN7android15STEExtIspCamera23setFirstFrameParametersEi
shim__ZN7android15STEExtIspCamera23setFirstFrameParametersEi:
bl _ZN7android15STEExtIspCamera23setFirstFrameParametersEi

.globl shim__ZN7android15STEExtIspCamera14SetPropTouchAFEii
shim__ZN7android15STEExtIspCamera14SetPropTouchAFEii:
bl _ZN7android15STEExtIspCamera14SetPropTouchAFEii

.globl shim__ZN7android15STEExtIspCamera23SetPropSamsungCameraAppEv
shim__ZN7android15STEExtIspCamera23SetPropSamsungCameraAppEv:
bl _ZN7android15STEExtIspCamera23SetPropSamsungCameraAppEv

.globl shim__ZN7android15STEExtIspCamera10findCenterEPNS_9FocusAreaEPNS_10FocusPointE
shim__ZN7android15STEExtIspCamera10findCenterEPNS_9FocusAreaEPNS_10FocusPointE:
bl _ZN7android15STEExtIspCamera10findCenterEPNS_9FocusAreaEPNS_10FocusPointE

.globl shim__ZN7android15STEExtIspCamera13normalizeAreaEPNS_10FocusPointE
shim__ZN7android15STEExtIspCamera13normalizeAreaEPNS_10FocusPointE:
bl _ZN7android15STEExtIspCamera13normalizeAreaEPNS_10FocusPointE

.globl shim__ZN7android15STEExtIspCamera9checkAreaEllllli
shim__ZN7android15STEExtIspCamera9checkAreaEllllli:
bl _ZN7android15STEExtIspCamera9checkAreaEllllli

.globl shim__ZN7android15STEExtIspCamera20getCropVectorForZoomERiS1_RjS2_b
shim__ZN7android15STEExtIspCamera20getCropVectorForZoomERiS1_RjS2_b:
bl _ZN7android15STEExtIspCamera20getCropVectorForZoomERiS1_RjS2_b

.globl shim__ZN7android15STEExtIspCamera10parseAreasEPKcjPNS_9FocusAreaEi
shim__ZN7android15STEExtIspCamera10parseAreasEPKcjPNS_9FocusAreaEi:
bl _ZN7android15STEExtIspCamera10parseAreasEPKcjPNS_9FocusAreaEi

.globl shim__ZN7android15STEExtIspCamera11notifyErrorEv
shim__ZN7android15STEExtIspCamera11notifyErrorEv:
bl _ZN7android15STEExtIspCamera11notifyErrorEv

.globl shim__ZN7android27omxExtIspCameraEventHandlerEPvS0_13OMX_EVENTTYPEmmS0_
shim__ZN7android27omxExtIspCameraEventHandlerEPvS0_13OMX_EVENTTYPEmmS0_:
bl _ZN7android27omxExtIspCameraEventHandlerEPvS0_13OMX_EVENTTYPEmmS0_

.globl shim__ZN7android15STEExtIspCamera13setFocusAreasERKNS_16CameraParametersE
shim__ZN7android15STEExtIspCamera13setFocusAreasERKNS_16CameraParametersE:
bl _ZN7android15STEExtIspCamera13setFocusAreasERKNS_16CameraParametersE

.globl shim__ZN7android29omxExtIspCameraFillBufferDoneEPvS0_P20OMX_BUFFERHEADERTYPE
shim__ZN7android29omxExtIspCameraFillBufferDoneEPvS0_P20OMX_BUFFERHEADERTYPE:
bl _ZN7android29omxExtIspCameraFillBufferDoneEPvS0_P20OMX_BUFFERHEADERTYPE

.globl shim__ZN7android15STEExtIspCamera25enableNativeBuffOnOMXCompEPvi
shim__ZN7android15STEExtIspCamera25enableNativeBuffOnOMXCompEPvi:
bl _ZN7android15STEExtIspCamera25enableNativeBuffOnOMXCompEPvi

.globl shim__ZN7android15STEExtIspCamera21shareBufferWithCameraERNS_11buffer_infoEi
shim__ZN7android15STEExtIspCamera21shareBufferWithCameraERNS_11buffer_infoEi:
bl _ZN7android15STEExtIspCamera21shareBufferWithCameraERNS_11buffer_infoEi

.globl shim__ZN7android15STEExtIspCamera13previewThreadEv
shim__ZN7android15STEExtIspCamera13previewThreadEv:
bl _ZN7android15STEExtIspCamera13previewThreadEv

.globl shim__ZN7android15STEExtIspCamera18beginPreviewThreadEPv
shim__ZN7android15STEExtIspCamera18beginPreviewThreadEPv:
bl _ZN7android15STEExtIspCamera18beginPreviewThreadEPv

.globl shim__ZN7android2spINS_13GraphicBufferEED1Ev
shim__ZN7android2spINS_13GraphicBufferEED1Ev:
bl _ZN7android2spINS_13GraphicBufferEED1Ev

.globl shim__ZN7android2spINS_13GraphicBufferEE5clearEv
shim__ZN7android2spINS_13GraphicBufferEE5clearEv:
bl _ZN7android2spINS_13GraphicBufferEE5clearEv

.globl shim__ZN7android2spINS_13GraphicBufferEEaSERKS2_
shim__ZN7android2spINS_13GraphicBufferEEaSERKS2_:
bl _ZN7android2spINS_13GraphicBufferEEaSERKS2_

.globl shim__ZN7android15STEExtIspCamera27AllocateZoomStillHeapLockedEv
shim__ZN7android15STEExtIspCamera27AllocateZoomStillHeapLockedEv:
bl _ZN7android15STEExtIspCamera27AllocateZoomStillHeapLockedEv

.globl shim__ZN7android15STEExtIspCamera28AllocateZoomRecordHeapLockedEv
shim__ZN7android15STEExtIspCamera28AllocateZoomRecordHeapLockedEv:
bl _ZN7android15STEExtIspCamera28AllocateZoomRecordHeapLockedEv

.globl shim__ZN7android15STEExtIspCamera24AllocateRecordHeapLockedEv
shim__ZN7android15STEExtIspCamera24AllocateRecordHeapLockedEv:
bl _ZN7android15STEExtIspCamera24AllocateRecordHeapLockedEv

.globl shim__ZN7android15STEExtIspCamera18ReconfigurePreviewEv
shim__ZN7android15STEExtIspCamera18ReconfigurePreviewEv:
bl _ZN7android15STEExtIspCamera18ReconfigurePreviewEv

.globl shim__ZN7android15STEExtIspCamera15cameraConfigSetEv
shim__ZN7android15STEExtIspCamera15cameraConfigSetEv:
bl _ZN7android15STEExtIspCamera15cameraConfigSetEv

.globl shim__ZN7android15STEExtIspCamera19FreeStillHeapLockedEv
shim__ZN7android15STEExtIspCamera19FreeStillHeapLockedEv:
bl _ZN7android15STEExtIspCamera19FreeStillHeapLockedEv

.globl shim__ZN7android15STEExtIspCamera15cleanUpDspPanicEPv
shim__ZN7android15STEExtIspCamera15cleanUpDspPanicEPv:
bl _ZN7android15STEExtIspCamera15cleanUpDspPanicEPv

.globl shim__ZN7android15STEExtIspCamera14dispatchThreadEPv
shim__ZN7android15STEExtIspCamera14dispatchThreadEPv:
bl _ZN7android15STEExtIspCamera14dispatchThreadEPv

.globl shim__ZN7android15STEExtIspCamera19beginDispatchThreadEPv
shim__ZN7android15STEExtIspCamera19beginDispatchThreadEPv:
bl _ZN7android15STEExtIspCamera19beginDispatchThreadEPv

.globl shim__ZN7android15STEExtIspCamera16UnconfigureStillEv
shim__ZN7android15STEExtIspCamera16UnconfigureStillEv:
bl _ZN7android15STEExtIspCamera16UnconfigureStillEv

.globl shim__ZN7android15STEExtIspCamera23AllocateStillHeapLockedEv
shim__ZN7android15STEExtIspCamera23AllocateStillHeapLockedEv:
bl _ZN7android15STEExtIspCamera23AllocateStillHeapLockedEv

.globl shim__ZN7android15STEExtIspCamera14ConfigureStillEv
shim__ZN7android15STEExtIspCamera14ConfigureStillEv:
bl _ZN7android15STEExtIspCamera14ConfigureStillEv

.globl shim__ZN7android15STEExtIspCamera19ConfigureSnapRecordEv
shim__ZN7android15STEExtIspCamera19ConfigureSnapRecordEv:
bl _ZN7android15STEExtIspCamera19ConfigureSnapRecordEv

.globl shim__ZN7android17NevenFaceDetector8getFacesEP21camera_frame_metadata
shim__ZN7android17NevenFaceDetector8getFacesEP21camera_frame_metadata:
bl _ZN7android17NevenFaceDetector8getFacesEP21camera_frame_metadata

.globl shim__ZN7android17NevenFaceDetectorC1Ev
shim__ZN7android17NevenFaceDetectorC1Ev:
bl _ZN7android17NevenFaceDetectorC1Ev

.globl shim__ZN7android17NevenFaceDetector22isColorFormatSupportedE20OMX_COLOR_FORMATTYPE
shim__ZN7android17NevenFaceDetector22isColorFormatSupportedE20OMX_COLOR_FORMATTYPE:
bl _ZN7android17NevenFaceDetector22isColorFormatSupportedE20OMX_COLOR_FORMATTYPE

.globl shim__ZN7android17NevenFaceDetector4initEiii20OMX_COLOR_FORMATTYPE
shim__ZN7android17NevenFaceDetector4initEiii20OMX_COLOR_FORMATTYPE:
bl _ZN7android17NevenFaceDetector4initEiii20OMX_COLOR_FORMATTYPE

.globl shim__ZN7android17NevenFaceDetector11getFaceDataEv
shim__ZN7android17NevenFaceDetector11getFaceDataEv:
bl _ZN7android17NevenFaceDetector11getFaceDataEv

.globl shim__ZN7android17NevenFaceDetector17processInputFrameEv
shim__ZN7android17NevenFaceDetector17processInputFrameEv:
bl _ZN7android17NevenFaceDetector17processInputFrameEv

.globl shim__ZN7android17NevenFaceDetector16waitForNextFrameEv
shim__ZN7android17NevenFaceDetector16waitForNextFrameEv:
bl _ZN7android17NevenFaceDetector16waitForNextFrameEv

.globl shim__ZN7android17NevenFaceDetector16runFaceDetectionEv
shim__ZN7android17NevenFaceDetector16runFaceDetectionEv:
bl _ZN7android17NevenFaceDetector16runFaceDetectionEv

.globl shim__ZN7android17NevenFaceDetector23exitFaceDetectionThreadEb
shim__ZN7android17NevenFaceDetector23exitFaceDetectionThreadEb:
bl _ZN7android17NevenFaceDetector23exitFaceDetectionThreadEb

.globl shim__ZN7android17NevenFaceDetectorD1Ev
shim__ZN7android17NevenFaceDetectorD1Ev:
bl _ZN7android17NevenFaceDetectorD1Ev

.globl shim__ZN7android17NevenFaceDetectorD0Ev
shim__ZN7android17NevenFaceDetectorD0Ev:
bl _ZN7android17NevenFaceDetectorD0Ev

.globl shim__ZN7android17NevenFaceDetector14allowNextFrameEv
shim__ZN7android17NevenFaceDetector14allowNextFrameEv:
bl _ZN7android17NevenFaceDetector14allowNextFrameEv

.globl shim__ZN7android19faceDetectionThreadEPv
shim__ZN7android19faceDetectionThreadEPv:
bl _ZN7android19faceDetectionThreadEPv

.globl shim__ZN7android17NevenFaceDetector25IsFaceDetectionThreadBusyEv
shim__ZN7android17NevenFaceDetector25IsFaceDetectionThreadBusyEv:
bl _ZN7android17NevenFaceDetector25IsFaceDetectionThreadBusyEv

.globl shim__ZN7android17NevenFaceDetector14postInputFrameEPciii
shim__ZN7android17NevenFaceDetector14postInputFrameEPciii:
bl _ZN7android17NevenFaceDetector14postInputFrameEPciii
